(dp0
S'camera'
p1
(dp2
S'size'
p3
(iobjs
Vector
p4
(dp5
S'y'
p6
I480
sS'x'
p7
I640
sbsS'pos'
p8
(iobjs
KeyFrame
p9
(dp10
S'keys'
p11
(lp12
sS'frame'
p13
I199
sS'value'
p14
(iobjs
Vector
p15
(dp16
g6
I0
sg7
I0
sbsS'interpol'
p17
S'linear'
p18
sbsS'zoom'
p19
(iobjs
KeyFrame
p20
(dp21
g11
(lp22
sg13
I199
sg14
I1
sg17
g18
sbssS'framerate'
p23
I25
sS'scene'
p24
(dp25
S'cartesian'
p26
(iobjs
KeyFrame
p27
(dp28
g11
(lp29
sg13
I199
sg14
I01
sg17
S'const'
p30
sbsS'dist'
p31
(iobjs
KeyFrame
p32
(dp33
g11
(lp34
sg13
I199
sg14
I0
sg17
g18
sbsS'colour'
p35
(iobjs
KeyFrame
p36
(dp37
g11
(lp38
sg13
I199
sg14
(lp39
I0
aI0
aI0
asg17
g18
sbsg8
(iobjs
KeyFrame
p40
(dp41
g11
(lp42
sg13
I199
sg14
(iobjs
Vector
p43
(dp44
g6
I0
sg7
I0
sbsg17
g18
sbsS'width'
p45
(iobjs
KeyFrame
p46
(dp47
g11
(lp48
sg13
I199
sg14
I7
sg17
g18
sbsS'shape'
p49
(iobjs
Texture
p50
(dp51
g13
I199
sS'values'
p52
(dp53
g49
(iobjs
KeyFrame
p54
(dp55
g11
(lp56
sg13
I199
sg14
S'line'
p57
sg17
g30
sbsS'file'
p58
(iobjs
KeyFrame
p59
(dp60
g11
(lp61
sg13
I199
sg14
S'splogoicon.png'
p62
sg17
g30
sbsS'text'
p63
(iobjs
KeyFrame
p64
(dp65
g11
(lp66
sg13
I199
sg14
S'test'
p67
sg17
g30
sbsS'fill'
p68
(iobjs
KeyFrame
p69
(dp70
g11
(lp71
sg13
I199
sg14
I00
sg17
g30
sbsS'flip'
p72
(iobjs
KeyFrame
p73
(dp74
g11
(lp75
sg13
I199
sg14
I01
sg17
g30
sbsS'caps'
p76
(iobjs
KeyFrame
p77
(dp78
g11
(lp79
sg13
I199
sg14
I01
sg17
g30
sbssS'comments'
p80
(dp81
g63
S'The text to be displayed as the limb'
p82
sg68
S'Fills the circle with the limb colour'
p83
sg72
S"Flips the shape so it isn't upside down when rotated"
p84
sg58
S'Name of image file to be displayed'
p85
sg76
S'Adds round caps to the end of the line'
p86
ssbsS'ang'
p87
(iobjs
KeyFrame
p88
(dp89
g11
(lp90
sg13
I199
sg14
I0
sg17
g18
sbsS'static'
p91
(iobjs
KeyFrame
p92
(dp93
g11
(lp94
sg13
I199
sg14
I01
sg17
g30
sbsS'hidden'
p95
(iobjs
KeyFrame
p96
(dp97
g11
(lp98
sg13
I199
sg14
I01
sg17
g30
sbsS'children'
p99
(lp100
(dp101
g26
(iobjs
KeyFrame
p102
(dp103
g11
(lp104
(lp105
I1
aI01
aa(lp106
I10
aI01
aa(lp107
I18
aI01
aa(lp108
I20
aI01
aa(lp109
I22
aI01
aa(lp110
F25.600000000000001
aI01
aa(lp111
F31.100000000000001
aI01
aa(lp112
F36.100000000000001
aI01
aa(lp113
I39
aI01
aa(lp114
I43
aI01
aa(lp115
I50
aI01
aa(lp116
I54
aI01
aa(lp117
I61
aI01
aa(lp118
F67.699999999999989
aI01
aa(lp119
F71.099999999999994
aI01
aa(lp120
I74
aI01
aa(lp121
I81
aI01
aa(lp122
I90
aI01
aa(lp123
I93
aI01
aa(lp124
I96
aI01
aa(lp125
I97
aI01
aa(lp126
I100
aI01
aa(lp127
I102
aI01
aa(lp128
I104
aI01
aa(lp129
I106
aI01
aa(lp130
I108
aI01
aa(lp131
I111
aI01
aa(lp132
I113
aI01
aa(lp133
I115
aI01
aa(lp134
I117
aI01
aa(lp135
I119
aI01
aa(lp136
I121
aI01
aa(lp137
I123
aI01
aa(lp138
I125
aI01
aa(lp139
I127
aI01
aa(lp140
I130
aI01
aa(lp141
I132
aI01
aa(lp142
I138
aI01
aa(lp143
I142
aI01
aa(lp144
I150
aI01
aa(lp145
I154
aI01
aa(lp146
I157
aI01
aa(lp147
I161
aI01
aasg13
I199
sg14
I01
sg17
g30
sbsg31
(iobjs
KeyFrame
p148
(dp149
g11
(lp150
(lp151
I1
aI0
aa(lp152
I10
aI0
aa(lp153
I18
aI0
aa(lp154
I20
aI0
aa(lp155
I22
aF0.0
aa(lp156
F25.600000000000001
aI0
aa(lp157
F31.100000000000001
aF0.0
aa(lp158
F36.100000000000001
aI0
aa(lp159
I39
aI0
aa(lp160
I43
aI0
aa(lp161
I50
aI0
aa(lp162
I54
aI0
aa(lp163
I61
aF0.0
aa(lp164
F67.699999999999989
aI0
aa(lp165
F71.099999999999994
aI0
aa(lp166
I74
aI0
aa(lp167
I81
aI0
aa(lp168
I90
aI0
aa(lp169
I93
aI0
aa(lp170
I96
aF0.0
aa(lp171
I97
aF0.0
aa(lp172
I100
aI0
aa(lp173
I102
aI0
aa(lp174
I104
aI0
aa(lp175
I106
aI0
aa(lp176
I108
aI0
aa(lp177
I111
aI0
aa(lp178
I113
aI0
aa(lp179
I115
aI0
aa(lp180
I117
aI0
aa(lp181
I119
aI0
aa(lp182
I121
aI0
aa(lp183
I123
aI0
aa(lp184
I125
aI0
aa(lp185
I127
aI0
aa(lp186
I130
aI0
aa(lp187
I132
aI0
aa(lp188
I138
aI0
aa(lp189
I142
aF0.0
aa(lp190
I150
aI0
aa(lp191
I154
aI0
aa(lp192
I157
aI0
aa(lp193
I161
aI0
aasg13
I199
sg14
I0
sg17
g18
sbsg35
(iobjs
KeyFrame
p194
(dp195
g11
(lp196
(lp197
I1
a(lp198
I0
aI0
aI0
aaa(lp199
I10
a(lp200
I0
aI0
aI0
aaa(lp201
I18
a(lp202
I0
aI0
aI0
aaa(lp203
I20
a(lp204
I0
aI0
aI0
aaa(lp205
I22
a(lp206
F0.0
aF0.0
aF0.0
aaa(lp207
F25.600000000000001
a(lp208
I0
aI0
aI0
aaa(lp209
F31.100000000000001
a(lp210
F0.0
aF0.0
aF0.0
aaa(lp211
F36.100000000000001
a(lp212
I0
aI0
aI0
aaa(lp213
I39
a(lp214
I0
aI0
aI0
aaa(lp215
I43
a(lp216
I0
aI0
aI0
aaa(lp217
I50
a(lp218
I0
aI0
aI0
aaa(lp219
I54
a(lp220
I0
aI0
aI0
aaa(lp221
I61
a(lp222
F0.0
aF0.0
aF0.0
aaa(lp223
F67.699999999999989
a(lp224
I0
aI0
aI0
aaa(lp225
F71.099999999999994
a(lp226
I0
aI0
aI0
aaa(lp227
I74
a(lp228
I0
aI0
aI0
aaa(lp229
I81
a(lp230
I0
aI0
aI0
aaa(lp231
I90
a(lp232
I0
aI0
aI0
aaa(lp233
I93
a(lp234
I0
aI0
aI0
aaa(lp235
I96
a(lp236
F0.0
aF0.0
aF0.0
aaa(lp237
I97
a(lp238
F0.0
aF0.0
aF0.0
aaa(lp239
I100
a(lp240
I0
aI0
aI0
aaa(lp241
I102
a(lp242
I0
aI0
aI0
aaa(lp243
I104
a(lp244
I0
aI0
aI0
aaa(lp245
I106
a(lp246
I0
aI0
aI0
aaa(lp247
I108
a(lp248
I0
aI0
aI0
aaa(lp249
I111
a(lp250
I0
aI0
aI0
aaa(lp251
I113
a(lp252
I0
aI0
aI0
aaa(lp253
I115
a(lp254
I0
aI0
aI0
aaa(lp255
I117
a(lp256
I0
aI0
aI0
aaa(lp257
I119
a(lp258
I0
aI0
aI0
aaa(lp259
I121
a(lp260
I0
aI0
aI0
aaa(lp261
I123
a(lp262
I0
aI0
aI0
aaa(lp263
I125
a(lp264
I0
aI0
aI0
aaa(lp265
I127
a(lp266
I0
aI0
aI0
aaa(lp267
I130
a(lp268
I0
aI0
aI0
aaa(lp269
I132
a(lp270
I0
aI0
aI0
aaa(lp271
I138
a(lp272
I0
aI0
aI0
aaa(lp273
I142
a(lp274
F0.0
aF0.0
aF0.0
aaa(lp275
I150
a(lp276
I0
aI0
aI0
aaa(lp277
I154
a(lp278
I0
aI0
aI0
aaa(lp279
I157
a(lp280
I0
aI0
aI0
aaa(lp281
I161
a(lp282
I0
aI0
aI0
aaasg13
I199
sg14
g282
sg17
g18
sbsg8
(iobjs
KeyFrame
p283
(dp284
g11
(lp285
(lp286
I1
a(iobjs
Vector
p287
(dp288
g6
I383
sg7
I330
sbaa(lp289
I10
a(iobjs
Vector
p290
(dp291
g6
I383
sg7
I330
sbaa(lp292
I18
a(iobjs
Vector
p293
(dp294
g6
I407
sg7
I330
sbaa(lp295
I20
a(iobjs
Vector
p296
(dp297
g6
F419.04444444444442
sg7
F331.15555555555551
sbaa(lp298
I22
a(iobjs
Vector
p299
(dp300
g6
F386.16949152542372
sg7
F366.64406779661016
sbaa(lp301
F25.600000000000001
a(iobjs
Vector
p302
(dp303
g6
F358.62777777777774
sg7
F418.65555555555557
sbaa(lp304
F31.100000000000001
a(lp305
F526.38317901234564
aF284.05023148148143
aaa(lp306
F36.100000000000001
a(iobjs
Vector
p307
(dp308
g6
F230.78055555555551
sg7
F603.33148148148143
sbaa(lp309
I39
a(iobjs
Vector
p310
(dp311
g6
F226.68563300142247
sg7
F612.46088193456615
sbaa(lp312
I43
a(iobjs
Vector
p313
(dp314
g6
F225.32005689900424
sg7
F598.80512091038406
sbaa(lp315
I50
a(iobjs
Vector
p316
(dp317
g6
F225.32005689900424
sg7
F589.24608819345656
sbaa(lp318
I54
a(iobjs
Vector
p319
(dp320
g6
F226.41251778093883
sg7
F564.39260312944521
sbaa(lp321
I61
a(iobjs
Vector
p322
(dp323
g6
F137.92318634423896
sg7
F344.80796586059739
sbaa(lp324
F67.699999999999989
a(iobjs
Vector
p325
(dp326
g6
F107.8805120910384
sg7
F119.48790896159316
sbaa(lp327
F71.099999999999994
a(iobjs
Vector
p328
(dp329
g6
F123.58463726884779
sg7
F49.843527738264576
sbaa(lp330
I74
a(iobjs
Vector
p331
(dp332
g6
F124.95021337126599
sg7
F42.332859174964433
sbaa(lp333
I81
a(iobjs
Vector
p334
(dp335
g6
F133.82645803698435
sg7
F58.71977240398293
sbaa(lp336
I90
a(iobjs
Vector
p337
(dp338
g6
F142.70270270270268
sg7
F68.278805120910377
sbaa(lp339
I93
a(iobjs
Vector
p340
(dp341
g6
F165.91749644381221
sg7
F83.982930298719765
sbaa(lp342
I96
a(iobjs
Vector
p343
(dp344
g6
F237.61024182076812
sg7
F116.75675675675674
sbaa(lp345
I97
a(iobjs
Vector
p346
(dp347
g6
F256.72830725462302
sg7
F133.82645803698435
sbaa(lp348
I100
a(iobjs
Vector
p349
(dp350
g6
F300.42674253200568
sg7
F191.18065433854906
sbaa(lp351
I102
a(iobjs
Vector
p352
(dp353
g6
F312.03413940256041
sg7
F240.34139402560453
sbaa(lp354
I104
a(iobjs
Vector
p355
(dp356
g6
F310.66856330014224
sg7
F284.03982930298719
sbaa(lp357
I106
a(iobjs
Vector
p358
(dp359
g6
F297.69559032716927
sg7
F306.5718349928876
sbaa(lp360
I108
a(iobjs
Vector
p361
(dp362
g6
F275.16358463726885
sg7
F318.1792318634424
sbaa(lp363
I111
a(iobjs
Vector
p364
(dp365
g6
F271.74964438122333
sg7
F331.83499288762442
sbaa(lp366
I113
a(iobjs
Vector
p367
(dp368
g6
F268.33570412517781
sg7
F338.66287339971547
sbaa(lp369
I115
a(iobjs
Vector
p370
(dp371
g6
F284.7226173541963
sg7
F329.10384068278802
sbaa(lp372
I117
a(iobjs
Vector
p373
(dp374
g6
F305.20625889046937
sg7
F301.79231863442385
sbaa(lp375
I119
a(iobjs
Vector
p376
(dp377
g6
F316.54054054054052
sg7
F283.08392603129442
sbaa(lp378
I121
a(iobjs
Vector
p379
(dp380
g6
F314.90184921763864
sg7
F265.74110953058317
sbaa(lp381
I123
a(iobjs
Vector
p382
(dp383
g6
F314.21906116642958
sg7
F254.81650071123752
sbaa(lp384
I125
a(iobjs
Vector
p385
(dp386
g6
F314.21906116642958
sg7
F250.71977240398292
sbaa(lp387
I127
a(iobjs
Vector
p388
(dp389
g6
F314.21906116642958
sg7
F243.20910384068276
sbaa(lp390
I130
a(iobjs
Vector
p391
(dp392
g6
F312.85348506401135
sg7
F259.59601706970125
sbaa(lp393
I132
a(iobjs
Vector
p394
(dp395
g6
F312.03413940256041
sg7
F254.67994310099573
sbaa(lp396
I138
a(iobjs
Vector
p397
(dp398
g6
F312.03413940256041
sg7
F257.41109530583213
sbaa(lp399
I142
a(iobjs
Vector
p400
(dp401
g6
F335.9481081081081
sg7
F259.99476529160739
sbaa(lp402
I150
a(iobjs
Vector
p403
(dp404
g6
F384.19118065433855
sg7
F264.48477951635846
sbaa(lp405
I154
a(iobjs
Vector
p406
(dp407
g6
F392.13559322033899
sg7
F266.30508474576271
sbaa(lp408
I157
a(iobjs
Vector
p409
(dp410
g6
F385.62711864406782
sg7
F271.18644067796612
sbaa(lp411
I161
a(iobjs
Vector
p412
(dp413
g6
F385.62711864406782
sg7
F271.18644067796612
sbaasg13
I199
sg14
g412
sg17
g18
sbsg45
(iobjs
KeyFrame
p414
(dp415
g11
(lp416
(lp417
I1
aI7
aa(lp418
I10
aI7
aa(lp419
I18
aI7
aa(lp420
I20
aI7
aa(lp421
I22
aF7.0
aa(lp422
F25.600000000000001
aI7
aa(lp423
F31.100000000000001
aF7.0
aa(lp424
F36.100000000000001
aI7
aa(lp425
I39
aI7
aa(lp426
I43
aI7
aa(lp427
I50
aI7
aa(lp428
I54
aI7
aa(lp429
I61
aF7.0
aa(lp430
F67.699999999999989
aI7
aa(lp431
F71.099999999999994
aI7
aa(lp432
I74
aI7
aa(lp433
I81
aI7
aa(lp434
I90
aI7
aa(lp435
I93
aI7
aa(lp436
I96
aF7.0
aa(lp437
I97
aF7.0
aa(lp438
I100
aI7
aa(lp439
I102
aI7
aa(lp440
I104
aI7
aa(lp441
I106
aI7
aa(lp442
I108
aI7
aa(lp443
I111
aI7
aa(lp444
I113
aI7
aa(lp445
I115
aI7
aa(lp446
I117
aI7
aa(lp447
I119
aI7
aa(lp448
I121
aI7
aa(lp449
I123
aI7
aa(lp450
I125
aI7
aa(lp451
I127
aI7
aa(lp452
I130
aI7
aa(lp453
I132
aI7
aa(lp454
I138
aI7
aa(lp455
I142
aF7.0
aa(lp456
I150
aI7
aa(lp457
I154
aI7
aa(lp458
I157
aI7
aa(lp459
I161
aI7
aasg13
I199
sg14
I7
sg17
g18
sbsg49
(iobjs
Texture
p460
(dp461
g13
I199
sg52
(dp462
g63
(iobjs
KeyFrame
p463
(dp464
g11
(lp465
(lp466
I1
ag67
aa(lp467
I10
ag67
aa(lp468
I18
ag67
aa(lp469
I20
ag67
aa(lp470
I22
ag67
aa(lp471
I28
ag67
aa(lp472
I35
ag67
aa(lp473
I39
ag67
aa(lp474
I40
ag67
aa(lp475
I43
ag67
aa(lp476
I50
ag67
aa(lp477
I54
ag67
aa(lp478
I61
ag67
aa(lp479
I65
ag67
aa(lp480
I74
ag67
aa(lp481
I75
ag67
aa(lp482
I81
ag67
aa(lp483
I90
ag67
aa(lp484
I93
ag67
aa(lp485
I96
ag67
aa(lp486
I97
ag67
aa(lp487
I100
ag67
aa(lp488
I102
ag67
aa(lp489
I104
ag67
aa(lp490
I106
ag67
aa(lp491
I108
ag67
aa(lp492
I111
ag67
aa(lp493
I113
ag67
aa(lp494
I115
ag67
aa(lp495
I117
ag67
aa(lp496
I119
ag67
aa(lp497
I121
ag67
aa(lp498
I123
ag67
aa(lp499
I125
ag67
aa(lp500
I127
ag67
aa(lp501
I130
ag67
aa(lp502
I132
ag67
aa(lp503
I138
ag67
aa(lp504
I142
ag67
aa(lp505
I150
ag67
aa(lp506
I154
ag67
aa(lp507
I157
ag67
aa(lp508
I161
ag67
aasg13
I199
sg14
g67
sg17
g30
sbsg72
(iobjs
KeyFrame
p509
(dp510
g11
(lp511
(lp512
I1
aI01
aa(lp513
I10
aI01
aa(lp514
I18
aI01
aa(lp515
I20
aI01
aa(lp516
I22
aI01
aa(lp517
I28
aI01
aa(lp518
I35
aI01
aa(lp519
I39
aI01
aa(lp520
I40
aI01
aa(lp521
I43
aI01
aa(lp522
I50
aI01
aa(lp523
I54
aI01
aa(lp524
I61
aI01
aa(lp525
I65
aI01
aa(lp526
I74
aI01
aa(lp527
I75
aI01
aa(lp528
I81
aI01
aa(lp529
I90
aI01
aa(lp530
I93
aI01
aa(lp531
I96
aI01
aa(lp532
I97
aI01
aa(lp533
I100
aI01
aa(lp534
I102
aI01
aa(lp535
I104
aI01
aa(lp536
I106
aI01
aa(lp537
I108
aI01
aa(lp538
I111
aI01
aa(lp539
I113
aI01
aa(lp540
I115
aI01
aa(lp541
I117
aI01
aa(lp542
I119
aI01
aa(lp543
I121
aI01
aa(lp544
I123
aI01
aa(lp545
I125
aI01
aa(lp546
I127
aI01
aa(lp547
I130
aI01
aa(lp548
I132
aI01
aa(lp549
I138
aI01
aa(lp550
I142
aI01
aa(lp551
I150
aI01
aa(lp552
I154
aI01
aa(lp553
I157
aI01
aa(lp554
I161
aI01
aasg13
I199
sg14
I01
sg17
g30
sbsg76
(iobjs
KeyFrame
p555
(dp556
g11
(lp557
(lp558
I1
aI01
aa(lp559
I10
aI01
aa(lp560
I18
aI01
aa(lp561
I20
aI01
aa(lp562
I22
aI01
aa(lp563
I28
aI01
aa(lp564
I35
aI01
aa(lp565
I39
aI01
aa(lp566
I40
aI01
aa(lp567
I43
aI01
aa(lp568
I50
aI01
aa(lp569
I54
aI01
aa(lp570
I61
aI01
aa(lp571
I65
aI01
aa(lp572
I74
aI01
aa(lp573
I75
aI01
aa(lp574
I81
aI01
aa(lp575
I90
aI01
aa(lp576
I93
aI01
aa(lp577
I96
aI01
aa(lp578
I97
aI01
aa(lp579
I100
aI01
aa(lp580
I102
aI01
aa(lp581
I104
aI01
aa(lp582
I106
aI01
aa(lp583
I108
aI01
aa(lp584
I111
aI01
aa(lp585
I113
aI01
aa(lp586
I115
aI01
aa(lp587
I117
aI01
aa(lp588
I119
aI01
aa(lp589
I121
aI01
aa(lp590
I123
aI01
aa(lp591
I125
aI01
aa(lp592
I127
aI01
aa(lp593
I130
aI01
aa(lp594
I132
aI01
aa(lp595
I138
aI01
aa(lp596
I142
aI01
aa(lp597
I150
aI01
aa(lp598
I154
aI01
aa(lp599
I157
aI01
aa(lp600
I161
aI01
aasg13
I199
sg14
I01
sg17
g30
sbsg49
(iobjs
KeyFrame
p601
(dp602
g11
(lp603
(lp604
I1
ag57
aa(lp605
I10
ag57
aa(lp606
I18
ag57
aa(lp607
I20
ag57
aa(lp608
I22
ag57
aa(lp609
I28
ag57
aa(lp610
I35
ag57
aa(lp611
I39
ag57
aa(lp612
I40
ag57
aa(lp613
I43
ag57
aa(lp614
I50
ag57
aa(lp615
I54
ag57
aa(lp616
I61
ag57
aa(lp617
I65
ag57
aa(lp618
I74
ag57
aa(lp619
I75
ag57
aa(lp620
I81
ag57
aa(lp621
I90
ag57
aa(lp622
I93
ag57
aa(lp623
I96
ag57
aa(lp624
I97
ag57
aa(lp625
I100
ag57
aa(lp626
I102
ag57
aa(lp627
I104
ag57
aa(lp628
I106
ag57
aa(lp629
I108
ag57
aa(lp630
I111
ag57
aa(lp631
I113
ag57
aa(lp632
I115
ag57
aa(lp633
I117
ag57
aa(lp634
I119
ag57
aa(lp635
I121
ag57
aa(lp636
I123
ag57
aa(lp637
I125
ag57
aa(lp638
I127
ag57
aa(lp639
I130
ag57
aa(lp640
I132
ag57
aa(lp641
I138
ag57
aa(lp642
I142
ag57
aa(lp643
I150
ag57
aa(lp644
I154
ag57
aa(lp645
I157
ag57
aa(lp646
I161
ag57
aasg13
I199
sg14
g57
sg17
g30
sbsg58
(iobjs
KeyFrame
p647
(dp648
g11
(lp649
(lp650
I1
ag62
aa(lp651
I10
ag62
aa(lp652
I18
ag62
aa(lp653
I20
ag62
aa(lp654
I22
ag62
aa(lp655
I28
ag62
aa(lp656
I35
ag62
aa(lp657
I39
ag62
aa(lp658
I40
ag62
aa(lp659
I43
ag62
aa(lp660
I50
ag62
aa(lp661
I54
ag62
aa(lp662
I61
ag62
aa(lp663
I65
ag62
aa(lp664
I74
ag62
aa(lp665
I75
ag62
aa(lp666
I81
ag62
aa(lp667
I90
ag62
aa(lp668
I93
ag62
aa(lp669
I96
ag62
aa(lp670
I97
ag62
aa(lp671
I100
ag62
aa(lp672
I102
ag62
aa(lp673
I104
ag62
aa(lp674
I106
ag62
aa(lp675
I108
ag62
aa(lp676
I111
ag62
aa(lp677
I113
ag62
aa(lp678
I115
ag62
aa(lp679
I117
ag62
aa(lp680
I119
ag62
aa(lp681
I121
ag62
aa(lp682
I123
ag62
aa(lp683
I125
ag62
aa(lp684
I127
ag62
aa(lp685
I130
ag62
aa(lp686
I132
ag62
aa(lp687
I138
ag62
aa(lp688
I142
ag62
aa(lp689
I150
ag62
aa(lp690
I154
ag62
aa(lp691
I157
ag62
aa(lp692
I161
ag62
aasg13
I199
sg14
g62
sg17
g30
sbsg68
(iobjs
KeyFrame
p693
(dp694
g11
(lp695
(lp696
I1
aI00
aa(lp697
I10
aI00
aa(lp698
I18
aI00
aa(lp699
I20
aI00
aa(lp700
I22
aI00
aa(lp701
I28
aI00
aa(lp702
I35
aI00
aa(lp703
I39
aI00
aa(lp704
I40
aI00
aa(lp705
I43
aI00
aa(lp706
I50
aI00
aa(lp707
I54
aI00
aa(lp708
I61
aI00
aa(lp709
I65
aI00
aa(lp710
I74
aI00
aa(lp711
I75
aI00
aa(lp712
I81
aI00
aa(lp713
I90
aI00
aa(lp714
I93
aI00
aa(lp715
I96
aI00
aa(lp716
I97
aI00
aa(lp717
I100
aI00
aa(lp718
I102
aI00
aa(lp719
I104
aI00
aa(lp720
I106
aI00
aa(lp721
I108
aI00
aa(lp722
I111
aI00
aa(lp723
I113
aI00
aa(lp724
I115
aI00
aa(lp725
I117
aI00
aa(lp726
I119
aI00
aa(lp727
I121
aI00
aa(lp728
I123
aI00
aa(lp729
I125
aI00
aa(lp730
I127
aI00
aa(lp731
I130
aI00
aa(lp732
I132
aI00
aa(lp733
I138
aI00
aa(lp734
I142
aI00
aa(lp735
I150
aI00
aa(lp736
I154
aI00
aa(lp737
I157
aI00
aa(lp738
I161
aI00
aasg13
I199
sg14
I00
sg17
g30
sbssg80
(dp739
g63
g82
sg68
g83
sg72
g84
sg58
g85
sg76
g86
ssbsg87
(iobjs
KeyFrame
p740
(dp741
g11
(lp742
(lp743
I1
aI90
aa(lp744
I10
aI90
aa(lp745
I18
aI90
aa(lp746
I20
aI90
aa(lp747
I22
aF90.0
aa(lp748
F25.600000000000001
aI90
aa(lp749
F31.100000000000001
aF90.0
aa(lp750
F36.100000000000001
aI90
aa(lp751
I39
aI90
aa(lp752
I43
aI90
aa(lp753
I50
aI90
aa(lp754
I54
aI90
aa(lp755
I61
aF90.0
aa(lp756
F67.699999999999989
aI90
aa(lp757
F71.099999999999994
aI90
aa(lp758
I74
aI90
aa(lp759
I81
aI90
aa(lp760
I90
aI90
aa(lp761
I93
aI90
aa(lp762
I96
aF90.0
aa(lp763
I97
aF90.0
aa(lp764
I100
aI90
aa(lp765
I102
aI90
aa(lp766
I104
aI90
aa(lp767
I106
aI90
aa(lp768
I108
aI90
aa(lp769
I111
aI90
aa(lp770
I113
aI90
aa(lp771
I115
aI90
aa(lp772
I117
aI90
aa(lp773
I119
aI90
aa(lp774
I121
aI90
aa(lp775
I123
aI90
aa(lp776
I125
aI90
aa(lp777
I127
aI90
aa(lp778
I130
aI90
aa(lp779
I132
aI90
aa(lp780
I138
aI90
aa(lp781
I142
aF90.0
aa(lp782
I150
aI90
aa(lp783
I154
aI90
aa(lp784
I157
aI90
aa(lp785
I161
aI90
aasg13
I199
sg14
I90
sg17
g18
sbsg91
(iobjs
KeyFrame
p786
(dp787
g11
(lp788
(lp789
I1
aI00
aa(lp790
I10
aI00
aa(lp791
I18
aI00
aa(lp792
I20
aI00
aa(lp793
I22
aI00
aa(lp794
F25.600000000000001
aI00
aa(lp795
F31.100000000000001
aI00
aa(lp796
F36.100000000000001
aI00
aa(lp797
I39
aI00
aa(lp798
I43
aI00
aa(lp799
I50
aI00
aa(lp800
I54
aI00
aa(lp801
I61
aI00
aa(lp802
F67.699999999999989
aI00
aa(lp803
F71.099999999999994
aI00
aa(lp804
I74
aI00
aa(lp805
I81
aI00
aa(lp806
I90
aI00
aa(lp807
I93
aI00
aa(lp808
I96
aI00
aa(lp809
I97
aI00
aa(lp810
I100
aI00
aa(lp811
I102
aI00
aa(lp812
I104
aI00
aa(lp813
I106
aI00
aa(lp814
I108
aI00
aa(lp815
I111
aI00
aa(lp816
I113
aI00
aa(lp817
I115
aI00
aa(lp818
I117
aI00
aa(lp819
I119
aI00
aa(lp820
I121
aI00
aa(lp821
I123
aI00
aa(lp822
I125
aI00
aa(lp823
I127
aI00
aa(lp824
I130
aI00
aa(lp825
I132
aI00
aa(lp826
I138
aI00
aa(lp827
I142
aI00
aa(lp828
I150
aI00
aa(lp829
I154
aI00
aa(lp830
I157
aI00
aa(lp831
I161
aI00
aasg13
I199
sg14
I00
sg17
g30
sbsg95
(iobjs
KeyFrame
p832
(dp833
g11
(lp834
(lp835
I1
aI01
aa(lp836
I10
aI01
aa(lp837
I18
aI01
aa(lp838
I20
aI01
aa(lp839
I22
aI01
aa(lp840
F25.600000000000001
aI01
aa(lp841
F31.100000000000001
aI01
aa(lp842
F36.100000000000001
aI01
aa(lp843
I39
aI01
aa(lp844
I43
aI01
aa(lp845
I50
aI01
aa(lp846
I54
aI01
aa(lp847
I61
aI01
aa(lp848
F67.699999999999989
aI01
aa(lp849
F71.099999999999994
aI01
aa(lp850
I74
aI01
aa(lp851
I81
aI01
aa(lp852
I90
aI01
aa(lp853
I93
aI01
aa(lp854
I96
aI01
aa(lp855
I97
aI01
aa(lp856
I100
aI01
aa(lp857
I102
aI01
aa(lp858
I104
aI01
aa(lp859
I106
aI01
aa(lp860
I108
aI01
aa(lp861
I111
aI01
aa(lp862
I113
aI01
aa(lp863
I115
aI01
aa(lp864
I117
aI01
aa(lp865
I119
aI01
aa(lp866
I121
aI01
aa(lp867
I123
aI01
aa(lp868
I125
aI01
aa(lp869
I127
aI01
aa(lp870
I130
aI01
aa(lp871
I132
aI01
aa(lp872
I138
aI01
aa(lp873
I142
aI01
aa(lp874
I150
aI01
aa(lp875
I154
aI01
aa(lp876
I157
aI01
aa(lp877
I161
aI01
aasg13
I199
sg14
I01
sg17
g30
sbsg99
(lp878
(dp879
g26
(iobjs
KeyFrame
p880
(dp881
g11
(lp882
(lp883
I1
aI00
aa(lp884
I10
aI00
aa(lp885
I18
aI00
aa(lp886
I20
aI00
aa(lp887
F25.600000000000001
aI00
aa(lp888
F31.100000000000001
aI00
aa(lp889
F36.100000000000001
aI00
aa(lp890
I39
aI00
aa(lp891
I43
aI00
aa(lp892
I50
aI00
aa(lp893
I54
aI00
aa(lp894
I61
aI00
aa(lp895
F67.699999999999989
aI00
aa(lp896
F71.099999999999994
aI00
aa(lp897
I74
aI00
aa(lp898
I81
aI00
aa(lp899
I90
aI00
aa(lp900
I93
aI00
aa(lp901
I100
aI00
aa(lp902
I102
aI00
aa(lp903
I104
aI00
aa(lp904
I106
aI00
aa(lp905
I108
aI00
aa(lp906
I111
aI00
aa(lp907
I113
aI00
aa(lp908
I115
aI00
aa(lp909
I117
aI00
aa(lp910
I119
aI00
aa(lp911
I121
aI00
aa(lp912
I123
aI00
aa(lp913
I125
aI00
aa(lp914
I127
aI00
aa(lp915
I130
aI00
aa(lp916
I132
aI00
aa(lp917
I138
aI00
aa(lp918
I142
aI00
aa(lp919
I148
aI00
aa(lp920
I150
aI00
aa(lp921
I154
aI00
aa(lp922
I157
aI00
aa(lp923
I161
aI00
aasg13
I199
sg14
I00
sg17
g30
sbsg31
(iobjs
KeyFrame
p924
(dp925
g11
(lp926
(lp927
I1
aI60
aa(lp928
I10
aI60
aa(lp929
I18
aI60
aa(lp930
I20
aI60
aa(lp931
F25.600000000000001
aI60
aa(lp932
F31.100000000000001
aF60.0
aa(lp933
F36.100000000000001
aI60
aa(lp934
I39
aI60
aa(lp935
I43
aI60
aa(lp936
I50
aI60
aa(lp937
I54
aI60
aa(lp938
I61
aF60.0
aa(lp939
F67.699999999999989
aI60
aa(lp940
F71.099999999999994
aI60
aa(lp941
I74
aI60
aa(lp942
I81
aI60
aa(lp943
I90
aI60
aa(lp944
I93
aI60
aa(lp945
I100
aI60
aa(lp946
I102
aI60
aa(lp947
I104
aI60
aa(lp948
I106
aI60
aa(lp949
I108
aI60
aa(lp950
I111
aI60
aa(lp951
I113
aI60
aa(lp952
I115
aI60
aa(lp953
I117
aI60
aa(lp954
I119
aI60
aa(lp955
I121
aI60
aa(lp956
I123
aI60
aa(lp957
I125
aI60
aa(lp958
I127
aI60
aa(lp959
I130
aI60
aa(lp960
I132
aI60
aa(lp961
I138
aI60
aa(lp962
I142
aF60.0
aa(lp963
I148
aF60.0
aa(lp964
I150
aI60
aa(lp965
I154
aI60
aa(lp966
I157
aI60
aa(lp967
I161
aI60
aasg13
I199
sg14
I60
sg17
g18
sbsg35
(iobjs
KeyFrame
p968
(dp969
g11
(lp970
(lp971
I1
a(lp972
I0
aI0
aI0
aaa(lp973
I10
a(lp974
I0
aI0
aI0
aaa(lp975
I18
a(lp976
I0
aI0
aI0
aaa(lp977
I20
a(lp978
I0
aI0
aI0
aaa(lp979
F25.600000000000001
a(lp980
I0
aI0
aI0
aaa(lp981
F31.100000000000001
a(lp982
F0.0
aF0.0
aF0.0
aaa(lp983
F36.100000000000001
a(lp984
I0
aI0
aI0
aaa(lp985
I39
a(lp986
I0
aI0
aI0
aaa(lp987
I43
a(lp988
I0
aI0
aI0
aaa(lp989
I50
a(lp990
I0
aI0
aI0
aaa(lp991
I54
a(lp992
I0
aI0
aI0
aaa(lp993
I61
a(lp994
F0.0
aF0.0
aF0.0
aaa(lp995
F67.699999999999989
a(lp996
I0
aI0
aI0
aaa(lp997
F71.099999999999994
a(lp998
I0
aI0
aI0
aaa(lp999
I74
a(lp1000
I0
aI0
aI0
aaa(lp1001
I81
a(lp1002
I0
aI0
aI0
aaa(lp1003
I90
a(lp1004
I0
aI0
aI0
aaa(lp1005
I93
a(lp1006
I0
aI0
aI0
aaa(lp1007
I100
a(lp1008
I0
aI0
aI0
aaa(lp1009
I102
a(lp1010
I0
aI0
aI0
aaa(lp1011
I104
a(lp1012
I0
aI0
aI0
aaa(lp1013
I106
a(lp1014
I0
aI0
aI0
aaa(lp1015
I108
a(lp1016
I0
aI0
aI0
aaa(lp1017
I111
a(lp1018
I0
aI0
aI0
aaa(lp1019
I113
a(lp1020
I0
aI0
aI0
aaa(lp1021
I115
a(lp1022
I0
aI0
aI0
aaa(lp1023
I117
a(lp1024
I0
aI0
aI0
aaa(lp1025
I119
a(lp1026
I0
aI0
aI0
aaa(lp1027
I121
a(lp1028
I0
aI0
aI0
aaa(lp1029
I123
a(lp1030
I0
aI0
aI0
aaa(lp1031
I125
a(lp1032
I0
aI0
aI0
aaa(lp1033
I127
a(lp1034
I0
aI0
aI0
aaa(lp1035
I130
a(lp1036
I0
aI0
aI0
aaa(lp1037
I132
a(lp1038
I0
aI0
aI0
aaa(lp1039
I138
a(lp1040
I0
aI0
aI0
aaa(lp1041
I142
a(lp1042
F0.0
aF0.0
aF0.0
aaa(lp1043
I148
a(lp1044
F0.0
aF0.0
aF0.0
aaa(lp1045
I150
a(lp1046
I0
aI0
aI0
aaa(lp1047
I154
a(lp1048
I0
aI0
aI0
aaa(lp1049
I157
a(lp1050
I0
aI0
aI0
aaa(lp1051
I161
a(lp1052
I0
aI0
aI0
aaasg13
I199
sg14
g1052
sg17
g18
sbsg8
(iobjs
KeyFrame
p1053
(dp1054
g11
(lp1055
(lp1056
I1
a(iobjs
Vector
p1057
(dp1058
g6
I0
sg7
I0
sbaa(lp1059
I10
a(iobjs
Vector
p1060
(dp1061
g6
I0
sg7
I0
sbaa(lp1062
I18
a(iobjs
Vector
p1063
(dp1064
g6
I0
sg7
I0
sbaa(lp1065
I20
a(iobjs
Vector
p1066
(dp1067
g6
I0
sg7
I0
sbaa(lp1068
F25.600000000000001
a(iobjs
Vector
p1069
(dp1070
g6
I0
sg7
I0
sbaa(lp1071
F31.100000000000001
a(lp1072
F0.0
aF0.0
aaa(lp1073
F36.100000000000001
a(iobjs
Vector
p1074
(dp1075
g6
I0
sg7
I0
sbaa(lp1076
I39
a(iobjs
Vector
p1077
(dp1078
g6
I0
sg7
I0
sbaa(lp1079
I43
a(iobjs
Vector
p1080
(dp1081
g6
I0
sg7
I0
sbaa(lp1082
I50
a(iobjs
Vector
p1083
(dp1084
g6
I0
sg7
I0
sbaa(lp1085
I54
a(iobjs
Vector
p1086
(dp1087
g6
I0
sg7
I0
sbaa(lp1088
I61
a(lp1089
F0.0
aF0.0
aaa(lp1090
F67.699999999999989
a(iobjs
Vector
p1091
(dp1092
g6
I0
sg7
I0
sbaa(lp1093
F71.099999999999994
a(iobjs
Vector
p1094
(dp1095
g6
I0
sg7
I0
sbaa(lp1096
I74
a(iobjs
Vector
p1097
(dp1098
g6
I0
sg7
I0
sbaa(lp1099
I81
a(iobjs
Vector
p1100
(dp1101
g6
I0
sg7
I0
sbaa(lp1102
I90
a(iobjs
Vector
p1103
(dp1104
g6
I0
sg7
I0
sbaa(lp1105
I93
a(iobjs
Vector
p1106
(dp1107
g6
I0
sg7
I0
sbaa(lp1108
I100
a(iobjs
Vector
p1109
(dp1110
g6
I0
sg7
I0
sbaa(lp1111
I102
a(iobjs
Vector
p1112
(dp1113
g6
I0
sg7
I0
sbaa(lp1114
I104
a(iobjs
Vector
p1115
(dp1116
g6
I0
sg7
I0
sbaa(lp1117
I106
a(iobjs
Vector
p1118
(dp1119
g6
I0
sg7
I0
sbaa(lp1120
I108
a(iobjs
Vector
p1121
(dp1122
g6
I0
sg7
I0
sbaa(lp1123
I111
a(iobjs
Vector
p1124
(dp1125
g6
I0
sg7
I0
sbaa(lp1126
I113
a(iobjs
Vector
p1127
(dp1128
g6
I0
sg7
I0
sbaa(lp1129
I115
a(iobjs
Vector
p1130
(dp1131
g6
I0
sg7
I0
sbaa(lp1132
I117
a(iobjs
Vector
p1133
(dp1134
g6
I0
sg7
I0
sbaa(lp1135
I119
a(iobjs
Vector
p1136
(dp1137
g6
I0
sg7
I0
sbaa(lp1138
I121
a(iobjs
Vector
p1139
(dp1140
g6
I0
sg7
I0
sbaa(lp1141
I123
a(iobjs
Vector
p1142
(dp1143
g6
I0
sg7
I0
sbaa(lp1144
I125
a(iobjs
Vector
p1145
(dp1146
g6
I0
sg7
I0
sbaa(lp1147
I127
a(iobjs
Vector
p1148
(dp1149
g6
I0
sg7
I0
sbaa(lp1150
I130
a(iobjs
Vector
p1151
(dp1152
g6
I0
sg7
I0
sbaa(lp1153
I132
a(iobjs
Vector
p1154
(dp1155
g6
I0
sg7
I0
sbaa(lp1156
I138
a(iobjs
Vector
p1157
(dp1158
g6
I0
sg7
I0
sbaa(lp1159
I142
a(lp1160
F0.0
aF0.0
aaa(lp1161
I148
a(lp1162
F0.0
aF0.0
aaa(lp1163
I150
a(iobjs
Vector
p1164
(dp1165
g6
I0
sg7
I0
sbaa(lp1166
I154
a(iobjs
Vector
p1167
(dp1168
g6
I0
sg7
I0
sbaa(lp1169
I157
a(iobjs
Vector
p1170
(dp1171
g6
I0
sg7
I0
sbaa(lp1172
I161
a(iobjs
Vector
p1173
(dp1174
g6
I0
sg7
I0
sbaasg13
I199
sg14
g1173
sg17
g18
sbsg45
(iobjs
KeyFrame
p1175
(dp1176
g11
(lp1177
(lp1178
I1
aI7
aa(lp1179
I10
aI7
aa(lp1180
I18
aI7
aa(lp1181
I20
aI7
aa(lp1182
F25.600000000000001
aI7
aa(lp1183
F31.100000000000001
aF7.0
aa(lp1184
F36.100000000000001
aI7
aa(lp1185
I39
aI7
aa(lp1186
I43
aI7
aa(lp1187
I50
aI7
aa(lp1188
I54
aI7
aa(lp1189
I61
aF7.0
aa(lp1190
F67.699999999999989
aI7
aa(lp1191
F71.099999999999994
aI7
aa(lp1192
I74
aI7
aa(lp1193
I81
aI7
aa(lp1194
I90
aI7
aa(lp1195
I93
aI7
aa(lp1196
I100
aI7
aa(lp1197
I102
aI7
aa(lp1198
I104
aI7
aa(lp1199
I106
aI7
aa(lp1200
I108
aI7
aa(lp1201
I111
aI7
aa(lp1202
I113
aI7
aa(lp1203
I115
aI7
aa(lp1204
I117
aI7
aa(lp1205
I119
aI7
aa(lp1206
I121
aI7
aa(lp1207
I123
aI7
aa(lp1208
I125
aI7
aa(lp1209
I127
aI7
aa(lp1210
I130
aI7
aa(lp1211
I132
aI7
aa(lp1212
I138
aI7
aa(lp1213
I142
aF7.0
aa(lp1214
I148
aF7.0
aa(lp1215
I150
aI7
aa(lp1216
I154
aI7
aa(lp1217
I157
aI7
aa(lp1218
I161
aI7
aasg13
I199
sg14
I7
sg17
g18
sbsg49
(iobjs
Texture
p1219
(dp1220
g13
I199
sg52
(dp1221
g63
(iobjs
KeyFrame
p1222
(dp1223
g11
(lp1224
(lp1225
I1
ag67
aa(lp1226
I10
ag67
aa(lp1227
I18
ag67
aa(lp1228
I20
ag67
aa(lp1229
I28
ag67
aa(lp1230
I35
ag67
aa(lp1231
I39
ag67
aa(lp1232
I40
ag67
aa(lp1233
I43
ag67
aa(lp1234
I50
ag67
aa(lp1235
I54
ag67
aa(lp1236
I61
ag67
aa(lp1237
I65
ag67
aa(lp1238
I74
ag67
aa(lp1239
I75
ag67
aa(lp1240
I81
ag67
aa(lp1241
I90
ag67
aa(lp1242
I93
ag67
aa(lp1243
I100
ag67
aa(lp1244
I102
ag67
aa(lp1245
I104
ag67
aa(lp1246
I106
ag67
aa(lp1247
I108
ag67
aa(lp1248
I111
ag67
aa(lp1249
I113
ag67
aa(lp1250
I115
ag67
aa(lp1251
I117
ag67
aa(lp1252
I119
ag67
aa(lp1253
I121
ag67
aa(lp1254
I123
ag67
aa(lp1255
I125
ag67
aa(lp1256
I127
ag67
aa(lp1257
I130
ag67
aa(lp1258
I132
ag67
aa(lp1259
I138
ag67
aa(lp1260
I142
ag67
aa(lp1261
I148
ag67
aa(lp1262
I150
ag67
aa(lp1263
I154
ag67
aa(lp1264
I157
ag67
aa(lp1265
I161
ag67
aasg13
I199
sg14
g67
sg17
g30
sbsg72
(iobjs
KeyFrame
p1266
(dp1267
g11
(lp1268
(lp1269
I1
aI01
aa(lp1270
I10
aI01
aa(lp1271
I18
aI01
aa(lp1272
I20
aI01
aa(lp1273
I28
aI01
aa(lp1274
I35
aI01
aa(lp1275
I39
aI01
aa(lp1276
I40
aI01
aa(lp1277
I43
aI01
aa(lp1278
I50
aI01
aa(lp1279
I54
aI01
aa(lp1280
I61
aI01
aa(lp1281
I65
aI01
aa(lp1282
I74
aI01
aa(lp1283
I75
aI01
aa(lp1284
I81
aI01
aa(lp1285
I90
aI01
aa(lp1286
I93
aI01
aa(lp1287
I100
aI01
aa(lp1288
I102
aI01
aa(lp1289
I104
aI01
aa(lp1290
I106
aI01
aa(lp1291
I108
aI01
aa(lp1292
I111
aI01
aa(lp1293
I113
aI01
aa(lp1294
I115
aI01
aa(lp1295
I117
aI01
aa(lp1296
I119
aI01
aa(lp1297
I121
aI01
aa(lp1298
I123
aI01
aa(lp1299
I125
aI01
aa(lp1300
I127
aI01
aa(lp1301
I130
aI01
aa(lp1302
I132
aI01
aa(lp1303
I138
aI01
aa(lp1304
I142
aI01
aa(lp1305
I148
aI01
aa(lp1306
I150
aI01
aa(lp1307
I154
aI01
aa(lp1308
I157
aI01
aa(lp1309
I161
aI01
aasg13
I199
sg14
I01
sg17
g30
sbsg76
(iobjs
KeyFrame
p1310
(dp1311
g11
(lp1312
(lp1313
I1
aI01
aa(lp1314
I10
aI01
aa(lp1315
I18
aI01
aa(lp1316
I20
aI01
aa(lp1317
I28
aI01
aa(lp1318
I35
aI01
aa(lp1319
I39
aI01
aa(lp1320
I40
aI01
aa(lp1321
I43
aI01
aa(lp1322
I50
aI01
aa(lp1323
I54
aI01
aa(lp1324
I61
aI01
aa(lp1325
I65
aI01
aa(lp1326
I74
aI01
aa(lp1327
I75
aI01
aa(lp1328
I81
aI01
aa(lp1329
I90
aI01
aa(lp1330
I93
aI01
aa(lp1331
I100
aI01
aa(lp1332
I102
aI01
aa(lp1333
I104
aI01
aa(lp1334
I106
aI01
aa(lp1335
I108
aI01
aa(lp1336
I111
aI01
aa(lp1337
I113
aI01
aa(lp1338
I115
aI01
aa(lp1339
I117
aI01
aa(lp1340
I119
aI01
aa(lp1341
I121
aI01
aa(lp1342
I123
aI01
aa(lp1343
I125
aI01
aa(lp1344
I127
aI01
aa(lp1345
I130
aI01
aa(lp1346
I132
aI01
aa(lp1347
I138
aI01
aa(lp1348
I142
aI01
aa(lp1349
I148
aI01
aa(lp1350
I150
aI01
aa(lp1351
I154
aI01
aa(lp1352
I157
aI01
aa(lp1353
I161
aI01
aasg13
I199
sg14
I01
sg17
g30
sbsg49
(iobjs
KeyFrame
p1354
(dp1355
g11
(lp1356
(lp1357
I1
ag57
aa(lp1358
I10
ag57
aa(lp1359
I18
ag57
aa(lp1360
I20
ag57
aa(lp1361
I28
ag57
aa(lp1362
I35
ag57
aa(lp1363
I39
ag57
aa(lp1364
I40
ag57
aa(lp1365
I43
ag57
aa(lp1366
I50
ag57
aa(lp1367
I54
ag57
aa(lp1368
I61
ag57
aa(lp1369
I65
ag57
aa(lp1370
I74
ag57
aa(lp1371
I75
ag57
aa(lp1372
I81
ag57
aa(lp1373
I90
ag57
aa(lp1374
I93
ag57
aa(lp1375
I100
ag57
aa(lp1376
I102
ag57
aa(lp1377
I104
ag57
aa(lp1378
I106
ag57
aa(lp1379
I108
ag57
aa(lp1380
I111
ag57
aa(lp1381
I113
ag57
aa(lp1382
I115
ag57
aa(lp1383
I117
ag57
aa(lp1384
I119
ag57
aa(lp1385
I121
ag57
aa(lp1386
I123
ag57
aa(lp1387
I125
ag57
aa(lp1388
I127
ag57
aa(lp1389
I130
ag57
aa(lp1390
I132
ag57
aa(lp1391
I138
ag57
aa(lp1392
I142
ag57
aa(lp1393
I148
ag57
aa(lp1394
I150
ag57
aa(lp1395
I154
ag57
aa(lp1396
I157
ag57
aa(lp1397
I161
ag57
aasg13
I199
sg14
g57
sg17
g30
sbsg58
(iobjs
KeyFrame
p1398
(dp1399
g11
(lp1400
(lp1401
I1
ag62
aa(lp1402
I10
ag62
aa(lp1403
I18
ag62
aa(lp1404
I20
ag62
aa(lp1405
I28
ag62
aa(lp1406
I35
ag62
aa(lp1407
I39
ag62
aa(lp1408
I40
ag62
aa(lp1409
I43
ag62
aa(lp1410
I50
ag62
aa(lp1411
I54
ag62
aa(lp1412
I61
ag62
aa(lp1413
I65
ag62
aa(lp1414
I74
ag62
aa(lp1415
I75
ag62
aa(lp1416
I81
ag62
aa(lp1417
I90
ag62
aa(lp1418
I93
ag62
aa(lp1419
I100
ag62
aa(lp1420
I102
ag62
aa(lp1421
I104
ag62
aa(lp1422
I106
ag62
aa(lp1423
I108
ag62
aa(lp1424
I111
ag62
aa(lp1425
I113
ag62
aa(lp1426
I115
ag62
aa(lp1427
I117
ag62
aa(lp1428
I119
ag62
aa(lp1429
I121
ag62
aa(lp1430
I123
ag62
aa(lp1431
I125
ag62
aa(lp1432
I127
ag62
aa(lp1433
I130
ag62
aa(lp1434
I132
ag62
aa(lp1435
I138
ag62
aa(lp1436
I142
ag62
aa(lp1437
I148
ag62
aa(lp1438
I150
ag62
aa(lp1439
I154
ag62
aa(lp1440
I157
ag62
aa(lp1441
I161
ag62
aasg13
I199
sg14
g62
sg17
g30
sbsg68
(iobjs
KeyFrame
p1442
(dp1443
g11
(lp1444
(lp1445
I1
aI00
aa(lp1446
I10
aI00
aa(lp1447
I18
aI00
aa(lp1448
I20
aI00
aa(lp1449
I28
aI00
aa(lp1450
I35
aI00
aa(lp1451
I39
aI00
aa(lp1452
I40
aI00
aa(lp1453
I43
aI00
aa(lp1454
I50
aI00
aa(lp1455
I54
aI00
aa(lp1456
I61
aI00
aa(lp1457
I65
aI00
aa(lp1458
I74
aI00
aa(lp1459
I75
aI00
aa(lp1460
I81
aI00
aa(lp1461
I90
aI00
aa(lp1462
I93
aI00
aa(lp1463
I100
aI00
aa(lp1464
I102
aI00
aa(lp1465
I104
aI00
aa(lp1466
I106
aI00
aa(lp1467
I108
aI00
aa(lp1468
I111
aI00
aa(lp1469
I113
aI00
aa(lp1470
I115
aI00
aa(lp1471
I117
aI00
aa(lp1472
I119
aI00
aa(lp1473
I121
aI00
aa(lp1474
I123
aI00
aa(lp1475
I125
aI00
aa(lp1476
I127
aI00
aa(lp1477
I130
aI00
aa(lp1478
I132
aI00
aa(lp1479
I138
aI00
aa(lp1480
I142
aI00
aa(lp1481
I148
aI00
aa(lp1482
I150
aI00
aa(lp1483
I154
aI00
aa(lp1484
I157
aI00
aa(lp1485
I161
aI00
aasg13
I199
sg14
I00
sg17
g30
sbssg80
(dp1486
g63
g82
sg68
g83
sg72
g84
sg58
g85
sg76
g86
ssbsg87
(iobjs
KeyFrame
p1487
(dp1488
g11
(lp1489
(lp1490
I1
aI270
aa(lp1491
I10
aI270
aa(lp1492
I18
aF297.07208023799274
aa(lp1493
I20
aF301.07903963507925
aa(lp1494
F25.600000000000001
aF312.50317865346585
aa(lp1495
F31.100000000000001
aF294.51084317452131
aa(lp1496
F36.100000000000001
aF251.56505117707798
aa(lp1497
I39
aF251.56505117707798
aa(lp1498
I43
aF251.56505117707798
aa(lp1499
I50
aF243.7185889786798
aa(lp1500
I54
aF227.00955381302111
aa(lp1501
I61
aF220.73781221355804
aa(lp1502
F67.699999999999989
aF214.73485953978627
aa(lp1503
F71.099999999999994
aF253.16252737432364
aa(lp1504
I74
aF253.16252737432364
aa(lp1505
I81
aF240.17992743452623
aa(lp1506
I90
aF233.25252904713608
aa(lp1507
I93
aF233.25252904713608
aa(lp1508
I100
aF259.80849814997231
aa(lp1509
I102
aF258.43986920578226
aa(lp1510
I104
aF245.17945866451089
aa(lp1511
I106
aF226.8476102659946
aa(lp1512
I108
aF201.67464911902414
aa(lp1513
I111
aF196.03233935393598
aa(lp1514
I113
aF196.03233935393598
aa(lp1515
I115
aF214.38034472384487
aa(lp1516
I117
aF247.13549187810031
aa(lp1517
I119
aF261.43911042883542
aa(lp1518
I121
aF268.69804732742114
aa(lp1519
I123
aF277.1250163489018
aa(lp1520
I125
aF277.1250163489018
aa(lp1521
I127
aF283.72229713313351
aa(lp1522
I130
aF273.11084065349075
aa(lp1523
I132
aF275.07960786001456
aa(lp1524
I138
aF273.04477844419398
aa(lp1525
I142
aF272.28279900421882
aa(lp1526
I148
aF271.13982984425604
aa(lp1527
I150
aF270.75884012426849
aa(lp1528
I154
aF270.75884012426849
aa(lp1529
I157
aF270.0
aa(lp1530
I161
aF270.0
aasg13
I199
sg14
F270.0
sg17
g18
sbsg91
(iobjs
KeyFrame
p1531
(dp1532
g11
(lp1533
(lp1534
I1
aI00
aa(lp1535
I10
aI00
aa(lp1536
I18
aI00
aa(lp1537
I20
aI00
aa(lp1538
F25.600000000000001
aI00
aa(lp1539
F31.100000000000001
aI00
aa(lp1540
F36.100000000000001
aI00
aa(lp1541
I39
aI00
aa(lp1542
I43
aI00
aa(lp1543
I50
aI00
aa(lp1544
I54
aI00
aa(lp1545
I61
aI00
aa(lp1546
F67.699999999999989
aI00
aa(lp1547
F71.099999999999994
aI00
aa(lp1548
I74
aI00
aa(lp1549
I81
aI00
aa(lp1550
I90
aI00
aa(lp1551
I93
aI00
aa(lp1552
I100
aI00
aa(lp1553
I102
aI00
aa(lp1554
I104
aI00
aa(lp1555
I106
aI00
aa(lp1556
I108
aI00
aa(lp1557
I111
aI00
aa(lp1558
I113
aI00
aa(lp1559
I115
aI00
aa(lp1560
I117
aI00
aa(lp1561
I119
aI00
aa(lp1562
I121
aI00
aa(lp1563
I123
aI00
aa(lp1564
I125
aI00
aa(lp1565
I127
aI00
aa(lp1566
I130
aI00
aa(lp1567
I132
aI00
aa(lp1568
I138
aI00
aa(lp1569
I142
aI00
aa(lp1570
I148
aI00
aa(lp1571
I150
aI00
aa(lp1572
I154
aI00
aa(lp1573
I157
aI00
aa(lp1574
I161
aI00
aasg13
I199
sg14
I00
sg17
g30
sbsg95
(iobjs
KeyFrame
p1575
(dp1576
g11
(lp1577
(lp1578
I1
aI00
aa(lp1579
I10
aI00
aa(lp1580
I18
aI00
aa(lp1581
I20
aI00
aa(lp1582
F25.600000000000001
aI00
aa(lp1583
F31.100000000000001
aI00
aa(lp1584
F36.100000000000001
aI00
aa(lp1585
I39
aI00
aa(lp1586
I43
aI00
aa(lp1587
I50
aI00
aa(lp1588
I54
aI00
aa(lp1589
I61
aI00
aa(lp1590
F67.699999999999989
aI00
aa(lp1591
F71.099999999999994
aI00
aa(lp1592
I74
aI00
aa(lp1593
I81
aI00
aa(lp1594
I90
aI00
aa(lp1595
I93
aI00
aa(lp1596
I100
aI00
aa(lp1597
I102
aI00
aa(lp1598
I104
aI00
aa(lp1599
I106
aI00
aa(lp1600
I108
aI00
aa(lp1601
I111
aI00
aa(lp1602
I113
aI00
aa(lp1603
I115
aI00
aa(lp1604
I117
aI00
aa(lp1605
I119
aI00
aa(lp1606
I121
aI00
aa(lp1607
I123
aI00
aa(lp1608
I125
aI00
aa(lp1609
I127
aI00
aa(lp1610
I130
aI00
aa(lp1611
I132
aI00
aa(lp1612
I138
aI00
aa(lp1613
I142
aI00
aa(lp1614
I148
aI00
aa(lp1615
I150
aI00
aa(lp1616
I154
aI00
aa(lp1617
I157
aI00
aa(lp1618
I161
aI00
aasg13
I199
sg14
I00
sg17
g30
sbsg99
(lp1619
(dp1620
g26
(iobjs
KeyFrame
p1621
(dp1622
g11
(lp1623
(lp1624
I1
aI00
aa(lp1625
I10
aI00
aa(lp1626
I18
aI00
aa(lp1627
I20
aI00
aa(lp1628
F25.600000000000001
aI00
aa(lp1629
F31.100000000000001
aI00
aa(lp1630
F36.100000000000001
aI00
aa(lp1631
I39
aI00
aa(lp1632
I43
aI00
aa(lp1633
I50
aI00
aa(lp1634
I54
aI00
aa(lp1635
I61
aI00
aa(lp1636
F67.699999999999989
aI00
aa(lp1637
F71.099999999999994
aI00
aa(lp1638
I74
aI00
aa(lp1639
I81
aI00
aa(lp1640
I90
aI00
aa(lp1641
I93
aI00
aa(lp1642
I100
aI00
aa(lp1643
I102
aI00
aa(lp1644
I104
aI00
aa(lp1645
I106
aI00
aa(lp1646
I108
aI00
aa(lp1647
I111
aI00
aa(lp1648
I113
aI00
aa(lp1649
I115
aI00
aa(lp1650
I117
aI00
aa(lp1651
I119
aI00
aa(lp1652
I121
aI00
aa(lp1653
I123
aI00
aa(lp1654
I125
aI00
aa(lp1655
I127
aI00
aa(lp1656
I130
aI00
aa(lp1657
I132
aI00
aa(lp1658
I138
aI00
aa(lp1659
I142
aI00
aa(lp1660
I150
aI00
aa(lp1661
I154
aI00
aa(lp1662
I157
aI00
aa(lp1663
I161
aI00
aasg13
I199
sg14
I00
sg17
g30
sbsg31
(iobjs
KeyFrame
p1664
(dp1665
g11
(lp1666
(lp1667
I1
aI36
aa(lp1668
I10
aI36
aa(lp1669
I18
aI36
aa(lp1670
I20
aI36
aa(lp1671
F25.600000000000001
aI36
aa(lp1672
F31.100000000000001
aF36.0
aa(lp1673
F36.100000000000001
aI36
aa(lp1674
I39
aI36
aa(lp1675
I43
aI36
aa(lp1676
I50
aI36
aa(lp1677
I54
aI36
aa(lp1678
I61
aF36.0
aa(lp1679
F67.699999999999989
aI36
aa(lp1680
F71.099999999999994
aI36
aa(lp1681
I74
aI36
aa(lp1682
I81
aI36
aa(lp1683
I90
aI36
aa(lp1684
I93
aI36
aa(lp1685
I100
aI36
aa(lp1686
I102
aI36
aa(lp1687
I104
aI36
aa(lp1688
I106
aI36
aa(lp1689
I108
aI36
aa(lp1690
I111
aI36
aa(lp1691
I113
aI36
aa(lp1692
I115
aI36
aa(lp1693
I117
aI36
aa(lp1694
I119
aI36
aa(lp1695
I121
aI36
aa(lp1696
I123
aI36
aa(lp1697
I125
aI36
aa(lp1698
I127
aI36
aa(lp1699
I130
aI36
aa(lp1700
I132
aI36
aa(lp1701
I138
aI36
aa(lp1702
I142
aF36.0
aa(lp1703
I150
aI36
aa(lp1704
I154
aI36
aa(lp1705
I157
aI36
aa(lp1706
I161
aI36
aasg13
I199
sg14
I36
sg17
g18
sbsg35
(iobjs
KeyFrame
p1707
(dp1708
g11
(lp1709
(lp1710
I1
a(lp1711
I0
aI0
aI0
aaa(lp1712
I10
a(lp1713
I0
aI0
aI0
aaa(lp1714
I18
a(lp1715
I0
aI0
aI0
aaa(lp1716
I20
a(lp1717
I0
aI0
aI0
aaa(lp1718
F25.600000000000001
a(lp1719
I0
aI0
aI0
aaa(lp1720
F31.100000000000001
a(lp1721
F0.0
aF0.0
aF0.0
aaa(lp1722
F36.100000000000001
a(lp1723
I0
aI0
aI0
aaa(lp1724
I39
a(lp1725
I0
aI0
aI0
aaa(lp1726
I43
a(lp1727
I0
aI0
aI0
aaa(lp1728
I50
a(lp1729
I0
aI0
aI0
aaa(lp1730
I54
a(lp1731
I0
aI0
aI0
aaa(lp1732
I61
a(lp1733
F0.0
aF0.0
aF0.0
aaa(lp1734
F67.699999999999989
a(lp1735
I0
aI0
aI0
aaa(lp1736
F71.099999999999994
a(lp1737
I0
aI0
aI0
aaa(lp1738
I74
a(lp1739
I0
aI0
aI0
aaa(lp1740
I81
a(lp1741
I0
aI0
aI0
aaa(lp1742
I90
a(lp1743
I0
aI0
aI0
aaa(lp1744
I93
a(lp1745
I0
aI0
aI0
aaa(lp1746
I100
a(lp1747
I0
aI0
aI0
aaa(lp1748
I102
a(lp1749
I0
aI0
aI0
aaa(lp1750
I104
a(lp1751
I0
aI0
aI0
aaa(lp1752
I106
a(lp1753
I0
aI0
aI0
aaa(lp1754
I108
a(lp1755
I0
aI0
aI0
aaa(lp1756
I111
a(lp1757
I0
aI0
aI0
aaa(lp1758
I113
a(lp1759
I0
aI0
aI0
aaa(lp1760
I115
a(lp1761
I0
aI0
aI0
aaa(lp1762
I117
a(lp1763
I0
aI0
aI0
aaa(lp1764
I119
a(lp1765
I0
aI0
aI0
aaa(lp1766
I121
a(lp1767
I0
aI0
aI0
aaa(lp1768
I123
a(lp1769
I0
aI0
aI0
aaa(lp1770
I125
a(lp1771
I0
aI0
aI0
aaa(lp1772
I127
a(lp1773
I0
aI0
aI0
aaa(lp1774
I130
a(lp1775
I0
aI0
aI0
aaa(lp1776
I132
a(lp1777
I0
aI0
aI0
aaa(lp1778
I138
a(lp1779
I0
aI0
aI0
aaa(lp1780
I142
a(lp1781
F0.0
aF0.0
aF0.0
aaa(lp1782
I150
a(lp1783
I0
aI0
aI0
aaa(lp1784
I154
a(lp1785
I0
aI0
aI0
aaa(lp1786
I157
a(lp1787
I0
aI0
aI0
aaa(lp1788
I161
a(lp1789
I0
aI0
aI0
aaasg13
I199
sg14
g1789
sg17
g18
sbsg8
(iobjs
KeyFrame
p1790
(dp1791
g11
(lp1792
(lp1793
I1
a(iobjs
Vector
p1794
(dp1795
g6
I0
sg7
I0
sbaa(lp1796
I10
a(iobjs
Vector
p1797
(dp1798
g6
I0
sg7
I0
sbaa(lp1799
I18
a(iobjs
Vector
p1800
(dp1801
g6
I0
sg7
I0
sbaa(lp1802
I20
a(iobjs
Vector
p1803
(dp1804
g6
I0
sg7
I0
sbaa(lp1805
F25.600000000000001
a(iobjs
Vector
p1806
(dp1807
g6
I0
sg7
I0
sbaa(lp1808
F31.100000000000001
a(lp1809
F0.0
aF0.0
aaa(lp1810
F36.100000000000001
a(iobjs
Vector
p1811
(dp1812
g6
I0
sg7
I0
sbaa(lp1813
I39
a(iobjs
Vector
p1814
(dp1815
g6
I0
sg7
I0
sbaa(lp1816
I43
a(iobjs
Vector
p1817
(dp1818
g6
I0
sg7
I0
sbaa(lp1819
I50
a(iobjs
Vector
p1820
(dp1821
g6
I0
sg7
I0
sbaa(lp1822
I54
a(iobjs
Vector
p1823
(dp1824
g6
I0
sg7
I0
sbaa(lp1825
I61
a(lp1826
F0.0
aF0.0
aaa(lp1827
F67.699999999999989
a(iobjs
Vector
p1828
(dp1829
g6
I0
sg7
I0
sbaa(lp1830
F71.099999999999994
a(iobjs
Vector
p1831
(dp1832
g6
I0
sg7
I0
sbaa(lp1833
I74
a(iobjs
Vector
p1834
(dp1835
g6
I0
sg7
I0
sbaa(lp1836
I81
a(iobjs
Vector
p1837
(dp1838
g6
I0
sg7
I0
sbaa(lp1839
I90
a(iobjs
Vector
p1840
(dp1841
g6
I0
sg7
I0
sbaa(lp1842
I93
a(iobjs
Vector
p1843
(dp1844
g6
I0
sg7
I0
sbaa(lp1845
I100
a(iobjs
Vector
p1846
(dp1847
g6
I0
sg7
I0
sbaa(lp1848
I102
a(iobjs
Vector
p1849
(dp1850
g6
I0
sg7
I0
sbaa(lp1851
I104
a(iobjs
Vector
p1852
(dp1853
g6
I0
sg7
I0
sbaa(lp1854
I106
a(iobjs
Vector
p1855
(dp1856
g6
I0
sg7
I0
sbaa(lp1857
I108
a(iobjs
Vector
p1858
(dp1859
g6
I0
sg7
I0
sbaa(lp1860
I111
a(iobjs
Vector
p1861
(dp1862
g6
I0
sg7
I0
sbaa(lp1863
I113
a(iobjs
Vector
p1864
(dp1865
g6
I0
sg7
I0
sbaa(lp1866
I115
a(iobjs
Vector
p1867
(dp1868
g6
I0
sg7
I0
sbaa(lp1869
I117
a(iobjs
Vector
p1870
(dp1871
g6
I0
sg7
I0
sbaa(lp1872
I119
a(iobjs
Vector
p1873
(dp1874
g6
I0
sg7
I0
sbaa(lp1875
I121
a(iobjs
Vector
p1876
(dp1877
g6
I0
sg7
I0
sbaa(lp1878
I123
a(iobjs
Vector
p1879
(dp1880
g6
I0
sg7
I0
sbaa(lp1881
I125
a(iobjs
Vector
p1882
(dp1883
g6
I0
sg7
I0
sbaa(lp1884
I127
a(iobjs
Vector
p1885
(dp1886
g6
I0
sg7
I0
sbaa(lp1887
I130
a(iobjs
Vector
p1888
(dp1889
g6
I0
sg7
I0
sbaa(lp1890
I132
a(iobjs
Vector
p1891
(dp1892
g6
I0
sg7
I0
sbaa(lp1893
I138
a(iobjs
Vector
p1894
(dp1895
g6
I0
sg7
I0
sbaa(lp1896
I142
a(lp1897
F0.0
aF0.0
aaa(lp1898
I150
a(iobjs
Vector
p1899
(dp1900
g6
I0
sg7
I0
sbaa(lp1901
I154
a(iobjs
Vector
p1902
(dp1903
g6
I0
sg7
I0
sbaa(lp1904
I157
a(iobjs
Vector
p1905
(dp1906
g6
I0
sg7
I0
sbaa(lp1907
I161
a(iobjs
Vector
p1908
(dp1909
g6
I0
sg7
I0
sbaasg13
I199
sg14
g1908
sg17
g18
sbsg45
(iobjs
KeyFrame
p1910
(dp1911
g11
(lp1912
(lp1913
I1
aI7
aa(lp1914
I10
aI7
aa(lp1915
I18
aI7
aa(lp1916
I20
aI7
aa(lp1917
F25.600000000000001
aI7
aa(lp1918
F31.100000000000001
aF7.0
aa(lp1919
F36.100000000000001
aI7
aa(lp1920
I39
aI7
aa(lp1921
I43
aI7
aa(lp1922
I50
aI7
aa(lp1923
I54
aI7
aa(lp1924
I61
aF7.0
aa(lp1925
F67.699999999999989
aI7
aa(lp1926
F71.099999999999994
aI7
aa(lp1927
I74
aI7
aa(lp1928
I81
aI7
aa(lp1929
I90
aI7
aa(lp1930
I93
aI7
aa(lp1931
I100
aI7
aa(lp1932
I102
aI7
aa(lp1933
I104
aI7
aa(lp1934
I106
aI7
aa(lp1935
I108
aI7
aa(lp1936
I111
aI7
aa(lp1937
I113
aI7
aa(lp1938
I115
aI7
aa(lp1939
I117
aI7
aa(lp1940
I119
aI7
aa(lp1941
I121
aI7
aa(lp1942
I123
aI7
aa(lp1943
I125
aI7
aa(lp1944
I127
aI7
aa(lp1945
I130
aI7
aa(lp1946
I132
aI7
aa(lp1947
I138
aI7
aa(lp1948
I142
aF7.0
aa(lp1949
I150
aI7
aa(lp1950
I154
aI7
aa(lp1951
I157
aI7
aa(lp1952
I161
aI7
aasg13
I199
sg14
I7
sg17
g18
sbsg49
(iobjs
Texture
p1953
(dp1954
g13
I199
sg52
(dp1955
g63
(iobjs
KeyFrame
p1956
(dp1957
g11
(lp1958
(lp1959
I1
ag67
aa(lp1960
I10
ag67
aa(lp1961
I18
ag67
aa(lp1962
I20
ag67
aa(lp1963
I28
ag67
aa(lp1964
I35
ag67
aa(lp1965
I39
ag67
aa(lp1966
I40
ag67
aa(lp1967
I43
ag67
aa(lp1968
I50
ag67
aa(lp1969
I54
ag67
aa(lp1970
I61
ag67
aa(lp1971
I65
ag67
aa(lp1972
I74
ag67
aa(lp1973
I75
ag67
aa(lp1974
I81
ag67
aa(lp1975
I90
ag67
aa(lp1976
I93
ag67
aa(lp1977
I100
ag67
aa(lp1978
I102
ag67
aa(lp1979
I104
ag67
aa(lp1980
I106
ag67
aa(lp1981
I108
ag67
aa(lp1982
I111
ag67
aa(lp1983
I113
ag67
aa(lp1984
I115
ag67
aa(lp1985
I117
ag67
aa(lp1986
I119
ag67
aa(lp1987
I121
ag67
aa(lp1988
I123
ag67
aa(lp1989
I125
ag67
aa(lp1990
I127
ag67
aa(lp1991
I130
ag67
aa(lp1992
I132
ag67
aa(lp1993
I138
ag67
aa(lp1994
I142
ag67
aa(lp1995
I150
ag67
aa(lp1996
I154
ag67
aa(lp1997
I157
ag67
aa(lp1998
I161
ag67
aasg13
I199
sg14
g67
sg17
g30
sbsg72
(iobjs
KeyFrame
p1999
(dp2000
g11
(lp2001
(lp2002
I1
aI01
aa(lp2003
I10
aI01
aa(lp2004
I18
aI01
aa(lp2005
I20
aI01
aa(lp2006
I28
aI01
aa(lp2007
I35
aI01
aa(lp2008
I39
aI01
aa(lp2009
I40
aI01
aa(lp2010
I43
aI01
aa(lp2011
I50
aI01
aa(lp2012
I54
aI01
aa(lp2013
I61
aI01
aa(lp2014
I65
aI01
aa(lp2015
I74
aI01
aa(lp2016
I75
aI01
aa(lp2017
I81
aI01
aa(lp2018
I90
aI01
aa(lp2019
I93
aI01
aa(lp2020
I100
aI01
aa(lp2021
I102
aI01
aa(lp2022
I104
aI01
aa(lp2023
I106
aI01
aa(lp2024
I108
aI01
aa(lp2025
I111
aI01
aa(lp2026
I113
aI01
aa(lp2027
I115
aI01
aa(lp2028
I117
aI01
aa(lp2029
I119
aI01
aa(lp2030
I121
aI01
aa(lp2031
I123
aI01
aa(lp2032
I125
aI01
aa(lp2033
I127
aI01
aa(lp2034
I130
aI01
aa(lp2035
I132
aI01
aa(lp2036
I138
aI01
aa(lp2037
I142
aI01
aa(lp2038
I150
aI01
aa(lp2039
I154
aI01
aa(lp2040
I157
aI01
aa(lp2041
I161
aI01
aasg13
I199
sg14
I01
sg17
g30
sbsg76
(iobjs
KeyFrame
p2042
(dp2043
g11
(lp2044
(lp2045
I1
aI01
aa(lp2046
I10
aI01
aa(lp2047
I18
aI01
aa(lp2048
I20
aI01
aa(lp2049
I28
aI01
aa(lp2050
I35
aI01
aa(lp2051
I39
aI01
aa(lp2052
I40
aI01
aa(lp2053
I43
aI01
aa(lp2054
I50
aI01
aa(lp2055
I54
aI01
aa(lp2056
I61
aI01
aa(lp2057
I65
aI01
aa(lp2058
I74
aI01
aa(lp2059
I75
aI01
aa(lp2060
I81
aI01
aa(lp2061
I90
aI01
aa(lp2062
I93
aI01
aa(lp2063
I100
aI01
aa(lp2064
I102
aI01
aa(lp2065
I104
aI01
aa(lp2066
I106
aI01
aa(lp2067
I108
aI01
aa(lp2068
I111
aI01
aa(lp2069
I113
aI01
aa(lp2070
I115
aI01
aa(lp2071
I117
aI01
aa(lp2072
I119
aI01
aa(lp2073
I121
aI01
aa(lp2074
I123
aI01
aa(lp2075
I125
aI01
aa(lp2076
I127
aI01
aa(lp2077
I130
aI01
aa(lp2078
I132
aI01
aa(lp2079
I138
aI01
aa(lp2080
I142
aI01
aa(lp2081
I150
aI01
aa(lp2082
I154
aI01
aa(lp2083
I157
aI01
aa(lp2084
I161
aI01
aasg13
I199
sg14
I01
sg17
g30
sbsg49
(iobjs
KeyFrame
p2085
(dp2086
g11
(lp2087
(lp2088
I1
aS'circle'
p2089
aa(lp2090
I10
ag2089
aa(lp2091
I18
ag2089
aa(lp2092
I20
ag2089
aa(lp2093
I28
ag2089
aa(lp2094
I35
ag2089
aa(lp2095
I39
ag2089
aa(lp2096
I40
ag2089
aa(lp2097
I43
ag2089
aa(lp2098
I50
ag2089
aa(lp2099
I54
ag2089
aa(lp2100
I61
ag2089
aa(lp2101
I65
ag2089
aa(lp2102
I74
ag2089
aa(lp2103
I75
ag2089
aa(lp2104
I81
ag2089
aa(lp2105
I90
ag2089
aa(lp2106
I93
ag2089
aa(lp2107
I100
ag2089
aa(lp2108
I102
ag2089
aa(lp2109
I104
ag2089
aa(lp2110
I106
ag2089
aa(lp2111
I108
ag2089
aa(lp2112
I111
ag2089
aa(lp2113
I113
ag2089
aa(lp2114
I115
ag2089
aa(lp2115
I117
ag2089
aa(lp2116
I119
ag2089
aa(lp2117
I121
ag2089
aa(lp2118
I123
ag2089
aa(lp2119
I125
ag2089
aa(lp2120
I127
ag2089
aa(lp2121
I130
ag2089
aa(lp2122
I132
ag2089
aa(lp2123
I138
ag2089
aa(lp2124
I142
ag2089
aa(lp2125
I150
ag2089
aa(lp2126
I154
ag2089
aa(lp2127
I157
ag2089
aa(lp2128
I161
ag2089
aasg13
I199
sg14
g2089
sg17
g30
sbsg58
(iobjs
KeyFrame
p2129
(dp2130
g11
(lp2131
(lp2132
I1
ag62
aa(lp2133
I10
ag62
aa(lp2134
I18
ag62
aa(lp2135
I20
ag62
aa(lp2136
I28
ag62
aa(lp2137
I35
ag62
aa(lp2138
I39
ag62
aa(lp2139
I40
ag62
aa(lp2140
I43
ag62
aa(lp2141
I50
ag62
aa(lp2142
I54
ag62
aa(lp2143
I61
ag62
aa(lp2144
I65
ag62
aa(lp2145
I74
ag62
aa(lp2146
I75
ag62
aa(lp2147
I81
ag62
aa(lp2148
I90
ag62
aa(lp2149
I93
ag62
aa(lp2150
I100
ag62
aa(lp2151
I102
ag62
aa(lp2152
I104
ag62
aa(lp2153
I106
ag62
aa(lp2154
I108
ag62
aa(lp2155
I111
ag62
aa(lp2156
I113
ag62
aa(lp2157
I115
ag62
aa(lp2158
I117
ag62
aa(lp2159
I119
ag62
aa(lp2160
I121
ag62
aa(lp2161
I123
ag62
aa(lp2162
I125
ag62
aa(lp2163
I127
ag62
aa(lp2164
I130
ag62
aa(lp2165
I132
ag62
aa(lp2166
I138
ag62
aa(lp2167
I142
ag62
aa(lp2168
I150
ag62
aa(lp2169
I154
ag62
aa(lp2170
I157
ag62
aa(lp2171
I161
ag62
aasg13
I199
sg14
g62
sg17
g30
sbsg68
(iobjs
KeyFrame
p2172
(dp2173
g11
(lp2174
(lp2175
I1
aI00
aa(lp2176
I10
aI00
aa(lp2177
I18
aI00
aa(lp2178
I20
aI00
aa(lp2179
I28
aI00
aa(lp2180
I35
aI00
aa(lp2181
I39
aI00
aa(lp2182
I40
aI00
aa(lp2183
I43
aI00
aa(lp2184
I50
aI00
aa(lp2185
I54
aI00
aa(lp2186
I61
aI00
aa(lp2187
I65
aI00
aa(lp2188
I74
aI00
aa(lp2189
I75
aI00
aa(lp2190
I81
aI00
aa(lp2191
I90
aI00
aa(lp2192
I93
aI00
aa(lp2193
I100
aI00
aa(lp2194
I102
aI00
aa(lp2195
I104
aI00
aa(lp2196
I106
aI00
aa(lp2197
I108
aI00
aa(lp2198
I111
aI00
aa(lp2199
I113
aI00
aa(lp2200
I115
aI00
aa(lp2201
I117
aI00
aa(lp2202
I119
aI00
aa(lp2203
I121
aI00
aa(lp2204
I123
aI00
aa(lp2205
I125
aI00
aa(lp2206
I127
aI00
aa(lp2207
I130
aI00
aa(lp2208
I132
aI00
aa(lp2209
I138
aI00
aa(lp2210
I142
aI00
aa(lp2211
I150
aI00
aa(lp2212
I154
aI00
aa(lp2213
I157
aI00
aa(lp2214
I161
aI00
aasg13
I199
sg14
I00
sg17
g30
sbssg80
(dp2215
g63
g82
sg76
g86
sg72
g84
sg58
g85
sg68
g83
ssbsg87
(iobjs
KeyFrame
p2216
(dp2217
g11
(lp2218
(lp2219
I1
aI0
aa(lp2220
I10
aI0
aa(lp2221
I18
aF-39.71484212447757
aa(lp2222
I20
aF-50.532514113236175
aa(lp2223
F25.600000000000001
aF-69.454516542832948
aa(lp2224
F31.100000000000001
aF-8.8852485666143224
aa(lp2225
F36.100000000000001
aF34.378514273541839
aa(lp2226
I39
aF7.7100294416322868
aa(lp2227
I43
aF-26.106475072783553
aa(lp2228
I50
aF-59.371107134614817
aa(lp2229
I54
aF-29.347444151110437
aa(lp2230
I61
aF-2.3098020910823536
aa(lp2231
F67.699999999999989
aF2.6512237526648619
aa(lp2232
F71.099999999999994
aF27.431278360345516
aa(lp2233
I74
aF47.552850365105769
aa(lp2234
I81
aF64.96840608401078
aa(lp2235
I90
aF64.96840608401078
aa(lp2236
I93
aF27.645154321469931
aa(lp2237
I100
aF-33.051420758246365
aa(lp2238
I102
aF-52.14783139493818
aa(lp2239
I104
aF-39.334626926602255
aa(lp2240
I106
aF-39.334626926602255
aa(lp2241
I108
aF-5.3088860151975155
aa(lp2242
I111
aF24.666262980419447
aa(lp2243
I113
aF43.939250194947419
aa(lp2244
I115
aF9.6646852248795767
aa(lp2245
I117
aF32.898119171824874
aa(lp2246
I119
aF45.866391034583046
aa(lp2247
I121
aF61.851840023836132
aa(lp2248
I123
aF90.451963125415148
aa(lp2249
I125
aF72.161091269408615
aa(lp2250
I127
aF73.272309388522245
aa(lp2251
I130
aF87.756723955337335
aa(lp2252
I132
aF80.292294431961935
aa(lp2253
I138
aF89.87820999098625
aa(lp2254
I142
aF59.886327111032642
aa(lp2255
I150
aF-0.097438648874568656
aa(lp2256
I154
aF5.6214185506710237
aa(lp2257
I157
aF0.0
aa(lp2258
I161
aF0.0
aasg13
I199
sg14
F0.0
sg17
g18
sbsg91
(iobjs
KeyFrame
p2259
(dp2260
g11
(lp2261
(lp2262
I1
aI00
aa(lp2263
I10
aI00
aa(lp2264
I18
aI00
aa(lp2265
I20
aI00
aa(lp2266
F25.600000000000001
aI00
aa(lp2267
F31.100000000000001
aI00
aa(lp2268
F36.100000000000001
aI00
aa(lp2269
I39
aI00
aa(lp2270
I43
aI00
aa(lp2271
I50
aI00
aa(lp2272
I54
aI00
aa(lp2273
I61
aI00
aa(lp2274
F67.699999999999989
aI00
aa(lp2275
F71.099999999999994
aI00
aa(lp2276
I74
aI00
aa(lp2277
I81
aI00
aa(lp2278
I90
aI00
aa(lp2279
I93
aI00
aa(lp2280
I100
aI00
aa(lp2281
I102
aI00
aa(lp2282
I104
aI00
aa(lp2283
I106
aI00
aa(lp2284
I108
aI00
aa(lp2285
I111
aI00
aa(lp2286
I113
aI00
aa(lp2287
I115
aI00
aa(lp2288
I117
aI00
aa(lp2289
I119
aI00
aa(lp2290
I121
aI00
aa(lp2291
I123
aI00
aa(lp2292
I125
aI00
aa(lp2293
I127
aI00
aa(lp2294
I130
aI00
aa(lp2295
I132
aI00
aa(lp2296
I138
aI00
aa(lp2297
I142
aI00
aa(lp2298
I150
aI00
aa(lp2299
I154
aI00
aa(lp2300
I157
aI00
aa(lp2301
I161
aI00
aasg13
I199
sg14
I00
sg17
g30
sbsg95
(iobjs
KeyFrame
p2302
(dp2303
g11
(lp2304
(lp2305
I1
aI00
aa(lp2306
I10
aI00
aa(lp2307
I18
aI00
aa(lp2308
I20
aI00
aa(lp2309
F25.600000000000001
aI00
aa(lp2310
F31.100000000000001
aI00
aa(lp2311
F36.100000000000001
aI00
aa(lp2312
I39
aI00
aa(lp2313
I43
aI00
aa(lp2314
I50
aI00
aa(lp2315
I54
aI00
aa(lp2316
I61
aI00
aa(lp2317
F67.699999999999989
aI00
aa(lp2318
F71.099999999999994
aI00
aa(lp2319
I74
aI00
aa(lp2320
I81
aI00
aa(lp2321
I90
aI00
aa(lp2322
I93
aI00
aa(lp2323
I100
aI00
aa(lp2324
I102
aI00
aa(lp2325
I104
aI00
aa(lp2326
I106
aI00
aa(lp2327
I108
aI00
aa(lp2328
I111
aI00
aa(lp2329
I113
aI00
aa(lp2330
I115
aI00
aa(lp2331
I117
aI00
aa(lp2332
I119
aI00
aa(lp2333
I121
aI00
aa(lp2334
I123
aI00
aa(lp2335
I125
aI00
aa(lp2336
I127
aI00
aa(lp2337
I130
aI00
aa(lp2338
I132
aI00
aa(lp2339
I138
aI00
aa(lp2340
I142
aI00
aa(lp2341
I150
aI00
aa(lp2342
I154
aI00
aa(lp2343
I157
aI00
aa(lp2344
I161
aI00
aasg13
I199
sg14
I00
sg17
g30
sbsg99
(lp2345
sa(dp2346
g26
(iobjs
KeyFrame
p2347
(dp2348
g11
(lp2349
(lp2350
I1
aI00
aa(lp2351
I10
aI00
aa(lp2352
I18
aI00
aa(lp2353
I20
aI00
aa(lp2354
F25.600000000000001
aI00
aa(lp2355
F31.100000000000001
aI00
aa(lp2356
F36.100000000000001
aI00
aa(lp2357
I39
aI00
aa(lp2358
I43
aI00
aa(lp2359
I50
aI00
aa(lp2360
I54
aI00
aa(lp2361
I61
aI00
aa(lp2362
F67.699999999999989
aI00
aa(lp2363
F71.099999999999994
aI00
aa(lp2364
I74
aI00
aa(lp2365
I81
aI00
aa(lp2366
I90
aI00
aa(lp2367
I93
aI00
aa(lp2368
I100
aI00
aa(lp2369
I102
aI00
aa(lp2370
I104
aI00
aa(lp2371
I106
aI00
aa(lp2372
I108
aI00
aa(lp2373
I111
aI00
aa(lp2374
I113
aI00
aa(lp2375
I115
aI00
aa(lp2376
I117
aI00
aa(lp2377
I119
aI00
aa(lp2378
I121
aI00
aa(lp2379
I123
aI00
aa(lp2380
I125
aI00
aa(lp2381
I127
aI00
aa(lp2382
I130
aI00
aa(lp2383
I132
aI00
aa(lp2384
I138
aI00
aa(lp2385
I142
aI00
aa(lp2386
I150
aI00
aa(lp2387
I154
aI00
aa(lp2388
I157
aI00
aa(lp2389
I161
aI00
aasg13
I199
sg14
I00
sg17
g30
sbsg31
(iobjs
KeyFrame
p2390
(dp2391
g11
(lp2392
(lp2393
I1
aI40
aa(lp2394
I10
aI40
aa(lp2395
I18
aI40
aa(lp2396
I20
aI40
aa(lp2397
F25.600000000000001
aI40
aa(lp2398
F31.100000000000001
aF40.0
aa(lp2399
F36.100000000000001
aI40
aa(lp2400
I39
aI40
aa(lp2401
I43
aI40
aa(lp2402
I50
aI40
aa(lp2403
I54
aI40
aa(lp2404
I61
aF40.0
aa(lp2405
F67.699999999999989
aI40
aa(lp2406
F71.099999999999994
aI40
aa(lp2407
I74
aI40
aa(lp2408
I81
aI40
aa(lp2409
I90
aI40
aa(lp2410
I93
aI40
aa(lp2411
I100
aI40
aa(lp2412
I102
aI40
aa(lp2413
I104
aI40
aa(lp2414
I106
aI40
aa(lp2415
I108
aI40
aa(lp2416
I111
aI40
aa(lp2417
I113
aI40
aa(lp2418
I115
aI40
aa(lp2419
I117
aI40
aa(lp2420
I119
aI40
aa(lp2421
I121
aI40
aa(lp2422
I123
aI40
aa(lp2423
I125
aI40
aa(lp2424
I127
aI40
aa(lp2425
I130
aI40
aa(lp2426
I132
aI40
aa(lp2427
I138
aI40
aa(lp2428
I142
aF40.0
aa(lp2429
I150
aI40
aa(lp2430
I154
aI40
aa(lp2431
I157
aI40
aa(lp2432
I161
aI40
aasg13
I199
sg14
I40
sg17
g18
sbsg35
(iobjs
KeyFrame
p2433
(dp2434
g11
(lp2435
(lp2436
I1
a(lp2437
I0
aI0
aI0
aaa(lp2438
I10
a(lp2439
I0
aI0
aI0
aaa(lp2440
I18
a(lp2441
I0
aI0
aI0
aaa(lp2442
I20
a(lp2443
I0
aI0
aI0
aaa(lp2444
F25.600000000000001
a(lp2445
I0
aI0
aI0
aaa(lp2446
F31.100000000000001
a(lp2447
F0.0
aF0.0
aF0.0
aaa(lp2448
F36.100000000000001
a(lp2449
I0
aI0
aI0
aaa(lp2450
I39
a(lp2451
I0
aI0
aI0
aaa(lp2452
I43
a(lp2453
I0
aI0
aI0
aaa(lp2454
I50
a(lp2455
I0
aI0
aI0
aaa(lp2456
I54
a(lp2457
I0
aI0
aI0
aaa(lp2458
I61
a(lp2459
F0.0
aF0.0
aF0.0
aaa(lp2460
F67.699999999999989
a(lp2461
I0
aI0
aI0
aaa(lp2462
F71.099999999999994
a(lp2463
I0
aI0
aI0
aaa(lp2464
I74
a(lp2465
I0
aI0
aI0
aaa(lp2466
I81
a(lp2467
I0
aI0
aI0
aaa(lp2468
I90
a(lp2469
I0
aI0
aI0
aaa(lp2470
I93
a(lp2471
I0
aI0
aI0
aaa(lp2472
I100
a(lp2473
I0
aI0
aI0
aaa(lp2474
I102
a(lp2475
I0
aI0
aI0
aaa(lp2476
I104
a(lp2477
I0
aI0
aI0
aaa(lp2478
I106
a(lp2479
I0
aI0
aI0
aaa(lp2480
I108
a(lp2481
I0
aI0
aI0
aaa(lp2482
I111
a(lp2483
I0
aI0
aI0
aaa(lp2484
I113
a(lp2485
I0
aI0
aI0
aaa(lp2486
I115
a(lp2487
I0
aI0
aI0
aaa(lp2488
I117
a(lp2489
I0
aI0
aI0
aaa(lp2490
I119
a(lp2491
I0
aI0
aI0
aaa(lp2492
I121
a(lp2493
I0
aI0
aI0
aaa(lp2494
I123
a(lp2495
I0
aI0
aI0
aaa(lp2496
I125
a(lp2497
I0
aI0
aI0
aaa(lp2498
I127
a(lp2499
I0
aI0
aI0
aaa(lp2500
I130
a(lp2501
I0
aI0
aI0
aaa(lp2502
I132
a(lp2503
I0
aI0
aI0
aaa(lp2504
I138
a(lp2505
I0
aI0
aI0
aaa(lp2506
I142
a(lp2507
F0.0
aF0.0
aF0.0
aaa(lp2508
I150
a(lp2509
I0
aI0
aI0
aaa(lp2510
I154
a(lp2511
I0
aI0
aI0
aaa(lp2512
I157
a(lp2513
I0
aI0
aI0
aaa(lp2514
I161
a(lp2515
I0
aI0
aI0
aaasg13
I199
sg14
g2515
sg17
g18
sbsg8
(iobjs
KeyFrame
p2516
(dp2517
g11
(lp2518
(lp2519
I1
a(iobjs
Vector
p2520
(dp2521
g6
I0
sg7
I0
sbaa(lp2522
I10
a(iobjs
Vector
p2523
(dp2524
g6
I0
sg7
I0
sbaa(lp2525
I18
a(iobjs
Vector
p2526
(dp2527
g6
I0
sg7
I0
sbaa(lp2528
I20
a(iobjs
Vector
p2529
(dp2530
g6
I0
sg7
I0
sbaa(lp2531
F25.600000000000001
a(iobjs
Vector
p2532
(dp2533
g6
I0
sg7
I0
sbaa(lp2534
F31.100000000000001
a(lp2535
F0.0
aF0.0
aaa(lp2536
F36.100000000000001
a(iobjs
Vector
p2537
(dp2538
g6
I0
sg7
I0
sbaa(lp2539
I39
a(iobjs
Vector
p2540
(dp2541
g6
I0
sg7
I0
sbaa(lp2542
I43
a(iobjs
Vector
p2543
(dp2544
g6
I0
sg7
I0
sbaa(lp2545
I50
a(iobjs
Vector
p2546
(dp2547
g6
I0
sg7
I0
sbaa(lp2548
I54
a(iobjs
Vector
p2549
(dp2550
g6
I0
sg7
I0
sbaa(lp2551
I61
a(lp2552
F0.0
aF0.0
aaa(lp2553
F67.699999999999989
a(iobjs
Vector
p2554
(dp2555
g6
I0
sg7
I0
sbaa(lp2556
F71.099999999999994
a(iobjs
Vector
p2557
(dp2558
g6
I0
sg7
I0
sbaa(lp2559
I74
a(iobjs
Vector
p2560
(dp2561
g6
I0
sg7
I0
sbaa(lp2562
I81
a(iobjs
Vector
p2563
(dp2564
g6
I0
sg7
I0
sbaa(lp2565
I90
a(iobjs
Vector
p2566
(dp2567
g6
I0
sg7
I0
sbaa(lp2568
I93
a(iobjs
Vector
p2569
(dp2570
g6
I0
sg7
I0
sbaa(lp2571
I100
a(iobjs
Vector
p2572
(dp2573
g6
I0
sg7
I0
sbaa(lp2574
I102
a(iobjs
Vector
p2575
(dp2576
g6
I0
sg7
I0
sbaa(lp2577
I104
a(iobjs
Vector
p2578
(dp2579
g6
I0
sg7
I0
sbaa(lp2580
I106
a(iobjs
Vector
p2581
(dp2582
g6
I0
sg7
I0
sbaa(lp2583
I108
a(iobjs
Vector
p2584
(dp2585
g6
I0
sg7
I0
sbaa(lp2586
I111
a(iobjs
Vector
p2587
(dp2588
g6
I0
sg7
I0
sbaa(lp2589
I113
a(iobjs
Vector
p2590
(dp2591
g6
I0
sg7
I0
sbaa(lp2592
I115
a(iobjs
Vector
p2593
(dp2594
g6
I0
sg7
I0
sbaa(lp2595
I117
a(iobjs
Vector
p2596
(dp2597
g6
I0
sg7
I0
sbaa(lp2598
I119
a(iobjs
Vector
p2599
(dp2600
g6
I0
sg7
I0
sbaa(lp2601
I121
a(iobjs
Vector
p2602
(dp2603
g6
I0
sg7
I0
sbaa(lp2604
I123
a(iobjs
Vector
p2605
(dp2606
g6
I0
sg7
I0
sbaa(lp2607
I125
a(iobjs
Vector
p2608
(dp2609
g6
I0
sg7
I0
sbaa(lp2610
I127
a(iobjs
Vector
p2611
(dp2612
g6
I0
sg7
I0
sbaa(lp2613
I130
a(iobjs
Vector
p2614
(dp2615
g6
I0
sg7
I0
sbaa(lp2616
I132
a(iobjs
Vector
p2617
(dp2618
g6
I0
sg7
I0
sbaa(lp2619
I138
a(iobjs
Vector
p2620
(dp2621
g6
I0
sg7
I0
sbaa(lp2622
I142
a(lp2623
F0.0
aF0.0
aaa(lp2624
I150
a(iobjs
Vector
p2625
(dp2626
g6
I0
sg7
I0
sbaa(lp2627
I154
a(iobjs
Vector
p2628
(dp2629
g6
I0
sg7
I0
sbaa(lp2630
I157
a(iobjs
Vector
p2631
(dp2632
g6
I0
sg7
I0
sbaa(lp2633
I161
a(iobjs
Vector
p2634
(dp2635
g6
I0
sg7
I0
sbaasg13
I199
sg14
g2634
sg17
g18
sbsg45
(iobjs
KeyFrame
p2636
(dp2637
g11
(lp2638
(lp2639
I1
aI7
aa(lp2640
I10
aI7
aa(lp2641
I18
aI7
aa(lp2642
I20
aI7
aa(lp2643
F25.600000000000001
aI7
aa(lp2644
F31.100000000000001
aF7.0
aa(lp2645
F36.100000000000001
aI7
aa(lp2646
I39
aI7
aa(lp2647
I43
aI7
aa(lp2648
I50
aI7
aa(lp2649
I54
aI7
aa(lp2650
I61
aF7.0
aa(lp2651
F67.699999999999989
aI7
aa(lp2652
F71.099999999999994
aI7
aa(lp2653
I74
aI7
aa(lp2654
I81
aI7
aa(lp2655
I90
aI7
aa(lp2656
I93
aI7
aa(lp2657
I100
aI7
aa(lp2658
I102
aI7
aa(lp2659
I104
aI7
aa(lp2660
I106
aI7
aa(lp2661
I108
aI7
aa(lp2662
I111
aI7
aa(lp2663
I113
aI7
aa(lp2664
I115
aI7
aa(lp2665
I117
aI7
aa(lp2666
I119
aI7
aa(lp2667
I121
aI7
aa(lp2668
I123
aI7
aa(lp2669
I125
aI7
aa(lp2670
I127
aI7
aa(lp2671
I130
aI7
aa(lp2672
I132
aI7
aa(lp2673
I138
aI7
aa(lp2674
I142
aF7.0
aa(lp2675
I150
aI7
aa(lp2676
I154
aI7
aa(lp2677
I157
aI7
aa(lp2678
I161
aI7
aasg13
I199
sg14
I7
sg17
g18
sbsg49
(iobjs
Texture
p2679
(dp2680
g13
I199
sg52
(dp2681
g63
(iobjs
KeyFrame
p2682
(dp2683
g11
(lp2684
(lp2685
I1
ag67
aa(lp2686
I10
ag67
aa(lp2687
I18
ag67
aa(lp2688
I20
ag67
aa(lp2689
I28
ag67
aa(lp2690
I35
ag67
aa(lp2691
I39
ag67
aa(lp2692
I40
ag67
aa(lp2693
I43
ag67
aa(lp2694
I50
ag67
aa(lp2695
I54
ag67
aa(lp2696
I61
ag67
aa(lp2697
I65
ag67
aa(lp2698
I74
ag67
aa(lp2699
I75
ag67
aa(lp2700
I81
ag67
aa(lp2701
I90
ag67
aa(lp2702
I93
ag67
aa(lp2703
I100
ag67
aa(lp2704
I102
ag67
aa(lp2705
I104
ag67
aa(lp2706
I106
ag67
aa(lp2707
I108
ag67
aa(lp2708
I111
ag67
aa(lp2709
I113
ag67
aa(lp2710
I115
ag67
aa(lp2711
I117
ag67
aa(lp2712
I119
ag67
aa(lp2713
I121
ag67
aa(lp2714
I123
ag67
aa(lp2715
I125
ag67
aa(lp2716
I127
ag67
aa(lp2717
I130
ag67
aa(lp2718
I132
ag67
aa(lp2719
I138
ag67
aa(lp2720
I142
ag67
aa(lp2721
I150
ag67
aa(lp2722
I154
ag67
aa(lp2723
I157
ag67
aa(lp2724
I161
ag67
aasg13
I199
sg14
g67
sg17
g30
sbsg72
(iobjs
KeyFrame
p2725
(dp2726
g11
(lp2727
(lp2728
I1
aI01
aa(lp2729
I10
aI01
aa(lp2730
I18
aI01
aa(lp2731
I20
aI01
aa(lp2732
I28
aI01
aa(lp2733
I35
aI01
aa(lp2734
I39
aI01
aa(lp2735
I40
aI01
aa(lp2736
I43
aI01
aa(lp2737
I50
aI01
aa(lp2738
I54
aI01
aa(lp2739
I61
aI01
aa(lp2740
I65
aI01
aa(lp2741
I74
aI01
aa(lp2742
I75
aI01
aa(lp2743
I81
aI01
aa(lp2744
I90
aI01
aa(lp2745
I93
aI01
aa(lp2746
I100
aI01
aa(lp2747
I102
aI01
aa(lp2748
I104
aI01
aa(lp2749
I106
aI01
aa(lp2750
I108
aI01
aa(lp2751
I111
aI01
aa(lp2752
I113
aI01
aa(lp2753
I115
aI01
aa(lp2754
I117
aI01
aa(lp2755
I119
aI01
aa(lp2756
I121
aI01
aa(lp2757
I123
aI01
aa(lp2758
I125
aI01
aa(lp2759
I127
aI01
aa(lp2760
I130
aI01
aa(lp2761
I132
aI01
aa(lp2762
I138
aI01
aa(lp2763
I142
aI01
aa(lp2764
I150
aI01
aa(lp2765
I154
aI01
aa(lp2766
I157
aI01
aa(lp2767
I161
aI01
aasg13
I199
sg14
I01
sg17
g30
sbsg76
(iobjs
KeyFrame
p2768
(dp2769
g11
(lp2770
(lp2771
I1
aI01
aa(lp2772
I10
aI01
aa(lp2773
I18
aI01
aa(lp2774
I20
aI01
aa(lp2775
I28
aI01
aa(lp2776
I35
aI01
aa(lp2777
I39
aI01
aa(lp2778
I40
aI01
aa(lp2779
I43
aI01
aa(lp2780
I50
aI01
aa(lp2781
I54
aI01
aa(lp2782
I61
aI01
aa(lp2783
I65
aI01
aa(lp2784
I74
aI01
aa(lp2785
I75
aI01
aa(lp2786
I81
aI01
aa(lp2787
I90
aI01
aa(lp2788
I93
aI01
aa(lp2789
I100
aI01
aa(lp2790
I102
aI01
aa(lp2791
I104
aI01
aa(lp2792
I106
aI01
aa(lp2793
I108
aI01
aa(lp2794
I111
aI01
aa(lp2795
I113
aI01
aa(lp2796
I115
aI01
aa(lp2797
I117
aI01
aa(lp2798
I119
aI01
aa(lp2799
I121
aI01
aa(lp2800
I123
aI01
aa(lp2801
I125
aI01
aa(lp2802
I127
aI01
aa(lp2803
I130
aI01
aa(lp2804
I132
aI01
aa(lp2805
I138
aI01
aa(lp2806
I142
aI01
aa(lp2807
I150
aI01
aa(lp2808
I154
aI01
aa(lp2809
I157
aI01
aa(lp2810
I161
aI01
aasg13
I199
sg14
I01
sg17
g30
sbsg49
(iobjs
KeyFrame
p2811
(dp2812
g11
(lp2813
(lp2814
I1
ag57
aa(lp2815
I10
ag57
aa(lp2816
I18
ag57
aa(lp2817
I20
ag57
aa(lp2818
I28
ag57
aa(lp2819
I35
ag57
aa(lp2820
I39
ag57
aa(lp2821
I40
ag57
aa(lp2822
I43
ag57
aa(lp2823
I50
ag57
aa(lp2824
I54
ag57
aa(lp2825
I61
ag57
aa(lp2826
I65
ag57
aa(lp2827
I74
ag57
aa(lp2828
I75
ag57
aa(lp2829
I81
ag57
aa(lp2830
I90
ag57
aa(lp2831
I93
ag57
aa(lp2832
I100
ag57
aa(lp2833
I102
ag57
aa(lp2834
I104
ag57
aa(lp2835
I106
ag57
aa(lp2836
I108
ag57
aa(lp2837
I111
ag57
aa(lp2838
I113
ag57
aa(lp2839
I115
ag57
aa(lp2840
I117
ag57
aa(lp2841
I119
ag57
aa(lp2842
I121
ag57
aa(lp2843
I123
ag57
aa(lp2844
I125
ag57
aa(lp2845
I127
ag57
aa(lp2846
I130
ag57
aa(lp2847
I132
ag57
aa(lp2848
I138
ag57
aa(lp2849
I142
ag57
aa(lp2850
I150
ag57
aa(lp2851
I154
ag57
aa(lp2852
I157
ag57
aa(lp2853
I161
ag57
aasg13
I199
sg14
g57
sg17
g30
sbsg58
(iobjs
KeyFrame
p2854
(dp2855
g11
(lp2856
(lp2857
I1
ag62
aa(lp2858
I10
ag62
aa(lp2859
I18
ag62
aa(lp2860
I20
ag62
aa(lp2861
I28
ag62
aa(lp2862
I35
ag62
aa(lp2863
I39
ag62
aa(lp2864
I40
ag62
aa(lp2865
I43
ag62
aa(lp2866
I50
ag62
aa(lp2867
I54
ag62
aa(lp2868
I61
ag62
aa(lp2869
I65
ag62
aa(lp2870
I74
ag62
aa(lp2871
I75
ag62
aa(lp2872
I81
ag62
aa(lp2873
I90
ag62
aa(lp2874
I93
ag62
aa(lp2875
I100
ag62
aa(lp2876
I102
ag62
aa(lp2877
I104
ag62
aa(lp2878
I106
ag62
aa(lp2879
I108
ag62
aa(lp2880
I111
ag62
aa(lp2881
I113
ag62
aa(lp2882
I115
ag62
aa(lp2883
I117
ag62
aa(lp2884
I119
ag62
aa(lp2885
I121
ag62
aa(lp2886
I123
ag62
aa(lp2887
I125
ag62
aa(lp2888
I127
ag62
aa(lp2889
I130
ag62
aa(lp2890
I132
ag62
aa(lp2891
I138
ag62
aa(lp2892
I142
ag62
aa(lp2893
I150
ag62
aa(lp2894
I154
ag62
aa(lp2895
I157
ag62
aa(lp2896
I161
ag62
aasg13
I199
sg14
g62
sg17
g30
sbsg68
(iobjs
KeyFrame
p2897
(dp2898
g11
(lp2899
(lp2900
I1
aI00
aa(lp2901
I10
aI00
aa(lp2902
I18
aI00
aa(lp2903
I20
aI00
aa(lp2904
I28
aI00
aa(lp2905
I35
aI00
aa(lp2906
I39
aI00
aa(lp2907
I40
aI00
aa(lp2908
I43
aI00
aa(lp2909
I50
aI00
aa(lp2910
I54
aI00
aa(lp2911
I61
aI00
aa(lp2912
I65
aI00
aa(lp2913
I74
aI00
aa(lp2914
I75
aI00
aa(lp2915
I81
aI00
aa(lp2916
I90
aI00
aa(lp2917
I93
aI00
aa(lp2918
I100
aI00
aa(lp2919
I102
aI00
aa(lp2920
I104
aI00
aa(lp2921
I106
aI00
aa(lp2922
I108
aI00
aa(lp2923
I111
aI00
aa(lp2924
I113
aI00
aa(lp2925
I115
aI00
aa(lp2926
I117
aI00
aa(lp2927
I119
aI00
aa(lp2928
I121
aI00
aa(lp2929
I123
aI00
aa(lp2930
I125
aI00
aa(lp2931
I127
aI00
aa(lp2932
I130
aI00
aa(lp2933
I132
aI00
aa(lp2934
I138
aI00
aa(lp2935
I142
aI00
aa(lp2936
I150
aI00
aa(lp2937
I154
aI00
aa(lp2938
I157
aI00
aa(lp2939
I161
aI00
aasg13
I199
sg14
I00
sg17
g30
sbssg80
(dp2940
g63
g82
sg68
g83
sg72
g84
sg58
g85
sg76
g86
ssbsg87
(iobjs
KeyFrame
p2941
(dp2942
g11
(lp2943
(lp2944
I1
aI135
aa(lp2945
I10
aI135
aa(lp2946
I18
aF119.83628576288336
aa(lp2947
I20
aF115.65174178868199
aa(lp2948
F25.600000000000001
aF168.2488145112336
aa(lp2949
F31.100000000000001
aF145.82338139645714
aa(lp2950
F36.100000000000001
aF89.219474695277484
aa(lp2951
I39
aF105.14205021244726
aa(lp2952
I43
aF105.14205021244726
aa(lp2953
I50
aF59.49573602538203
aa(lp2954
I54
aF125.32103084347335
aa(lp2955
I61
aF157.22746605866331
aa(lp2956
F67.699999999999989
aF165.8109872269572
aa(lp2957
F71.099999999999994
aF188.56000001785839
aa(lp2958
I74
aF177.33616784673382
aa(lp2959
I81
aF126.48787777988673
aa(lp2960
I90
aF130.13947225266509
aa(lp2961
I93
aF126.19178909944975
aa(lp2962
I100
aF31.851229125431757
aa(lp2963
I102
aF22.30561926727944
aa(lp2964
I104
aF28.394864163229215
aa(lp2965
I106
aF45.30548229242828
aa(lp2966
I108
aF70.961141228635654
aa(lp2967
I111
aF70.961141228635654
aa(lp2968
I113
aF69.307574500177111
aa(lp2969
I115
aF53.346480093129173
aa(lp2970
I117
aF20.460644429359149
aa(lp2971
I119
aF6.8191532272588802
aa(lp2972
I121
aF1.2988076059693867
aa(lp2973
I123
aF-7.0271443587452973
aa(lp2974
I125
aF-7.0271443587452973
aa(lp2975
I127
aF-13.587314411161607
aa(lp2976
I130
aF-4.7382933535542193
aa(lp2977
I132
aF-6.3138317660014778
aa(lp2978
I138
aF-6.3138317660014778
aa(lp2979
I142
aF18.748855504456344
aa(lp2980
I150
aF133.97845793061234
aa(lp2981
I154
aF139.33212476849195
aa(lp2982
I157
aF134.28415223057942
aa(lp2983
I161
aF135.0
aasg13
I199
sg14
F135.0
sg17
g18
sbsg91
(iobjs
KeyFrame
p2984
(dp2985
g11
(lp2986
(lp2987
I1
aI00
aa(lp2988
I10
aI00
aa(lp2989
I18
aI00
aa(lp2990
I20
aI00
aa(lp2991
F25.600000000000001
aI00
aa(lp2992
F31.100000000000001
aI00
aa(lp2993
F36.100000000000001
aI00
aa(lp2994
I39
aI00
aa(lp2995
I43
aI00
aa(lp2996
I50
aI00
aa(lp2997
I54
aI00
aa(lp2998
I61
aI00
aa(lp2999
F67.699999999999989
aI00
aa(lp3000
F71.099999999999994
aI00
aa(lp3001
I74
aI00
aa(lp3002
I81
aI00
aa(lp3003
I90
aI00
aa(lp3004
I93
aI00
aa(lp3005
I100
aI00
aa(lp3006
I102
aI00
aa(lp3007
I104
aI00
aa(lp3008
I106
aI00
aa(lp3009
I108
aI00
aa(lp3010
I111
aI00
aa(lp3011
I113
aI00
aa(lp3012
I115
aI00
aa(lp3013
I117
aI00
aa(lp3014
I119
aI00
aa(lp3015
I121
aI00
aa(lp3016
I123
aI00
aa(lp3017
I125
aI00
aa(lp3018
I127
aI00
aa(lp3019
I130
aI00
aa(lp3020
I132
aI00
aa(lp3021
I138
aI00
aa(lp3022
I142
aI00
aa(lp3023
I150
aI00
aa(lp3024
I154
aI00
aa(lp3025
I157
aI00
aa(lp3026
I161
aI00
aasg13
I199
sg14
I00
sg17
g30
sbsg95
(iobjs
KeyFrame
p3027
(dp3028
g11
(lp3029
(lp3030
I1
aI00
aa(lp3031
I10
aI00
aa(lp3032
I18
aI00
aa(lp3033
I20
aI00
aa(lp3034
F25.600000000000001
aI00
aa(lp3035
F31.100000000000001
aI00
aa(lp3036
F36.100000000000001
aI00
aa(lp3037
I39
aI00
aa(lp3038
I43
aI00
aa(lp3039
I50
aI00
aa(lp3040
I54
aI00
aa(lp3041
I61
aI00
aa(lp3042
F67.699999999999989
aI00
aa(lp3043
F71.099999999999994
aI00
aa(lp3044
I74
aI00
aa(lp3045
I81
aI00
aa(lp3046
I90
aI00
aa(lp3047
I93
aI00
aa(lp3048
I100
aI00
aa(lp3049
I102
aI00
aa(lp3050
I104
aI00
aa(lp3051
I106
aI00
aa(lp3052
I108
aI00
aa(lp3053
I111
aI00
aa(lp3054
I113
aI00
aa(lp3055
I115
aI00
aa(lp3056
I117
aI00
aa(lp3057
I119
aI00
aa(lp3058
I121
aI00
aa(lp3059
I123
aI00
aa(lp3060
I125
aI00
aa(lp3061
I127
aI00
aa(lp3062
I130
aI00
aa(lp3063
I132
aI00
aa(lp3064
I138
aI00
aa(lp3065
I142
aI00
aa(lp3066
I150
aI00
aa(lp3067
I154
aI00
aa(lp3068
I157
aI00
aa(lp3069
I161
aI00
aasg13
I199
sg14
I00
sg17
g30
sbsg99
(lp3070
(dp3071
g26
(iobjs
KeyFrame
p3072
(dp3073
g11
(lp3074
(lp3075
I1
aI00
aa(lp3076
I10
aI00
aa(lp3077
I18
aI00
aa(lp3078
I20
aI00
aa(lp3079
F25.600000000000001
aI00
aa(lp3080
F31.100000000000001
aI00
aa(lp3081
F36.100000000000001
aI00
aa(lp3082
I39
aI00
aa(lp3083
I43
aI00
aa(lp3084
I50
aI00
aa(lp3085
I54
aI00
aa(lp3086
I61
aI00
aa(lp3087
F67.699999999999989
aI00
aa(lp3088
F71.099999999999994
aI00
aa(lp3089
I74
aI00
aa(lp3090
I81
aI00
aa(lp3091
I90
aI00
aa(lp3092
I93
aI00
aa(lp3093
I100
aI00
aa(lp3094
I102
aI00
aa(lp3095
I104
aI00
aa(lp3096
I106
aI00
aa(lp3097
I108
aI00
aa(lp3098
I111
aI00
aa(lp3099
I113
aI00
aa(lp3100
I115
aI00
aa(lp3101
I117
aI00
aa(lp3102
I119
aI00
aa(lp3103
I121
aI00
aa(lp3104
I123
aI00
aa(lp3105
I125
aI00
aa(lp3106
I127
aI00
aa(lp3107
I130
aI00
aa(lp3108
I132
aI00
aa(lp3109
I138
aI00
aa(lp3110
I142
aI00
aa(lp3111
I150
aI00
aa(lp3112
I154
aI00
aa(lp3113
I157
aI00
aa(lp3114
I161
aI00
aasg13
I199
sg14
I00
sg17
g30
sbsg31
(iobjs
KeyFrame
p3115
(dp3116
g11
(lp3117
(lp3118
I1
aI40
aa(lp3119
I10
aI40
aa(lp3120
I18
aI40
aa(lp3121
I20
aI40
aa(lp3122
F25.600000000000001
aI40
aa(lp3123
F31.100000000000001
aF40.0
aa(lp3124
F36.100000000000001
aI40
aa(lp3125
I39
aI40
aa(lp3126
I43
aI40
aa(lp3127
I50
aI40
aa(lp3128
I54
aI40
aa(lp3129
I61
aF40.0
aa(lp3130
F67.699999999999989
aI40
aa(lp3131
F71.099999999999994
aI40
aa(lp3132
I74
aI40
aa(lp3133
I81
aI40
aa(lp3134
I90
aI40
aa(lp3135
I93
aI40
aa(lp3136
I100
aI40
aa(lp3137
I102
aI40
aa(lp3138
I104
aI40
aa(lp3139
I106
aI40
aa(lp3140
I108
aI40
aa(lp3141
I111
aI40
aa(lp3142
I113
aI40
aa(lp3143
I115
aI40
aa(lp3144
I117
aI40
aa(lp3145
I119
aI40
aa(lp3146
I121
aI40
aa(lp3147
I123
aI40
aa(lp3148
I125
aI40
aa(lp3149
I127
aI40
aa(lp3150
I130
aI40
aa(lp3151
I132
aI40
aa(lp3152
I138
aI40
aa(lp3153
I142
aF40.0
aa(lp3154
I150
aI40
aa(lp3155
I154
aI40
aa(lp3156
I157
aI40
aa(lp3157
I161
aI40
aasg13
I199
sg14
I40
sg17
g18
sbsg35
(iobjs
KeyFrame
p3158
(dp3159
g11
(lp3160
(lp3161
I1
a(lp3162
I0
aI0
aI0
aaa(lp3163
I10
a(lp3164
I0
aI0
aI0
aaa(lp3165
I18
a(lp3166
I0
aI0
aI0
aaa(lp3167
I20
a(lp3168
I0
aI0
aI0
aaa(lp3169
F25.600000000000001
a(lp3170
I0
aI0
aI0
aaa(lp3171
F31.100000000000001
a(lp3172
F0.0
aF0.0
aF0.0
aaa(lp3173
F36.100000000000001
a(lp3174
I0
aI0
aI0
aaa(lp3175
I39
a(lp3176
I0
aI0
aI0
aaa(lp3177
I43
a(lp3178
I0
aI0
aI0
aaa(lp3179
I50
a(lp3180
I0
aI0
aI0
aaa(lp3181
I54
a(lp3182
I0
aI0
aI0
aaa(lp3183
I61
a(lp3184
F0.0
aF0.0
aF0.0
aaa(lp3185
F67.699999999999989
a(lp3186
I0
aI0
aI0
aaa(lp3187
F71.099999999999994
a(lp3188
I0
aI0
aI0
aaa(lp3189
I74
a(lp3190
I0
aI0
aI0
aaa(lp3191
I81
a(lp3192
I0
aI0
aI0
aaa(lp3193
I90
a(lp3194
I0
aI0
aI0
aaa(lp3195
I93
a(lp3196
I0
aI0
aI0
aaa(lp3197
I100
a(lp3198
I0
aI0
aI0
aaa(lp3199
I102
a(lp3200
I0
aI0
aI0
aaa(lp3201
I104
a(lp3202
I0
aI0
aI0
aaa(lp3203
I106
a(lp3204
I0
aI0
aI0
aaa(lp3205
I108
a(lp3206
I0
aI0
aI0
aaa(lp3207
I111
a(lp3208
I0
aI0
aI0
aaa(lp3209
I113
a(lp3210
I0
aI0
aI0
aaa(lp3211
I115
a(lp3212
I0
aI0
aI0
aaa(lp3213
I117
a(lp3214
I0
aI0
aI0
aaa(lp3215
I119
a(lp3216
I0
aI0
aI0
aaa(lp3217
I121
a(lp3218
I0
aI0
aI0
aaa(lp3219
I123
a(lp3220
I0
aI0
aI0
aaa(lp3221
I125
a(lp3222
I0
aI0
aI0
aaa(lp3223
I127
a(lp3224
I0
aI0
aI0
aaa(lp3225
I130
a(lp3226
I0
aI0
aI0
aaa(lp3227
I132
a(lp3228
I0
aI0
aI0
aaa(lp3229
I138
a(lp3230
I0
aI0
aI0
aaa(lp3231
I142
a(lp3232
F0.0
aF0.0
aF0.0
aaa(lp3233
I150
a(lp3234
I0
aI0
aI0
aaa(lp3235
I154
a(lp3236
I0
aI0
aI0
aaa(lp3237
I157
a(lp3238
I0
aI0
aI0
aaa(lp3239
I161
a(lp3240
I0
aI0
aI0
aaasg13
I199
sg14
g3240
sg17
g18
sbsg8
(iobjs
KeyFrame
p3241
(dp3242
g11
(lp3243
(lp3244
I1
a(iobjs
Vector
p3245
(dp3246
g6
I0
sg7
I0
sbaa(lp3247
I10
a(iobjs
Vector
p3248
(dp3249
g6
I0
sg7
I0
sbaa(lp3250
I18
a(iobjs
Vector
p3251
(dp3252
g6
I0
sg7
I0
sbaa(lp3253
I20
a(iobjs
Vector
p3254
(dp3255
g6
I0
sg7
I0
sbaa(lp3256
F25.600000000000001
a(iobjs
Vector
p3257
(dp3258
g6
I0
sg7
I0
sbaa(lp3259
F31.100000000000001
a(lp3260
F0.0
aF0.0
aaa(lp3261
F36.100000000000001
a(iobjs
Vector
p3262
(dp3263
g6
I0
sg7
I0
sbaa(lp3264
I39
a(iobjs
Vector
p3265
(dp3266
g6
I0
sg7
I0
sbaa(lp3267
I43
a(iobjs
Vector
p3268
(dp3269
g6
I0
sg7
I0
sbaa(lp3270
I50
a(iobjs
Vector
p3271
(dp3272
g6
I0
sg7
I0
sbaa(lp3273
I54
a(iobjs
Vector
p3274
(dp3275
g6
I0
sg7
I0
sbaa(lp3276
I61
a(lp3277
F0.0
aF0.0
aaa(lp3278
F67.699999999999989
a(iobjs
Vector
p3279
(dp3280
g6
I0
sg7
I0
sbaa(lp3281
F71.099999999999994
a(iobjs
Vector
p3282
(dp3283
g6
I0
sg7
I0
sbaa(lp3284
I74
a(iobjs
Vector
p3285
(dp3286
g6
I0
sg7
I0
sbaa(lp3287
I81
a(iobjs
Vector
p3288
(dp3289
g6
I0
sg7
I0
sbaa(lp3290
I90
a(iobjs
Vector
p3291
(dp3292
g6
I0
sg7
I0
sbaa(lp3293
I93
a(iobjs
Vector
p3294
(dp3295
g6
I0
sg7
I0
sbaa(lp3296
I100
a(iobjs
Vector
p3297
(dp3298
g6
I0
sg7
I0
sbaa(lp3299
I102
a(iobjs
Vector
p3300
(dp3301
g6
I0
sg7
I0
sbaa(lp3302
I104
a(iobjs
Vector
p3303
(dp3304
g6
I0
sg7
I0
sbaa(lp3305
I106
a(iobjs
Vector
p3306
(dp3307
g6
I0
sg7
I0
sbaa(lp3308
I108
a(iobjs
Vector
p3309
(dp3310
g6
I0
sg7
I0
sbaa(lp3311
I111
a(iobjs
Vector
p3312
(dp3313
g6
I0
sg7
I0
sbaa(lp3314
I113
a(iobjs
Vector
p3315
(dp3316
g6
I0
sg7
I0
sbaa(lp3317
I115
a(iobjs
Vector
p3318
(dp3319
g6
I0
sg7
I0
sbaa(lp3320
I117
a(iobjs
Vector
p3321
(dp3322
g6
I0
sg7
I0
sbaa(lp3323
I119
a(iobjs
Vector
p3324
(dp3325
g6
I0
sg7
I0
sbaa(lp3326
I121
a(iobjs
Vector
p3327
(dp3328
g6
I0
sg7
I0
sbaa(lp3329
I123
a(iobjs
Vector
p3330
(dp3331
g6
I0
sg7
I0
sbaa(lp3332
I125
a(iobjs
Vector
p3333
(dp3334
g6
I0
sg7
I0
sbaa(lp3335
I127
a(iobjs
Vector
p3336
(dp3337
g6
I0
sg7
I0
sbaa(lp3338
I130
a(iobjs
Vector
p3339
(dp3340
g6
I0
sg7
I0
sbaa(lp3341
I132
a(iobjs
Vector
p3342
(dp3343
g6
I0
sg7
I0
sbaa(lp3344
I138
a(iobjs
Vector
p3345
(dp3346
g6
I0
sg7
I0
sbaa(lp3347
I142
a(lp3348
F0.0
aF0.0
aaa(lp3349
I150
a(iobjs
Vector
p3350
(dp3351
g6
I0
sg7
I0
sbaa(lp3352
I154
a(iobjs
Vector
p3353
(dp3354
g6
I0
sg7
I0
sbaa(lp3355
I157
a(iobjs
Vector
p3356
(dp3357
g6
I0
sg7
I0
sbaa(lp3358
I161
a(iobjs
Vector
p3359
(dp3360
g6
I0
sg7
I0
sbaasg13
I199
sg14
g3359
sg17
g18
sbsg45
(iobjs
KeyFrame
p3361
(dp3362
g11
(lp3363
(lp3364
I1
aI7
aa(lp3365
I10
aI7
aa(lp3366
I18
aI7
aa(lp3367
I20
aI7
aa(lp3368
F25.600000000000001
aI7
aa(lp3369
F31.100000000000001
aF7.0
aa(lp3370
F36.100000000000001
aI7
aa(lp3371
I39
aI7
aa(lp3372
I43
aI7
aa(lp3373
I50
aI7
aa(lp3374
I54
aI7
aa(lp3375
I61
aF7.0
aa(lp3376
F67.699999999999989
aI7
aa(lp3377
F71.099999999999994
aI7
aa(lp3378
I74
aI7
aa(lp3379
I81
aI7
aa(lp3380
I90
aI7
aa(lp3381
I93
aI7
aa(lp3382
I100
aI7
aa(lp3383
I102
aI7
aa(lp3384
I104
aI7
aa(lp3385
I106
aI7
aa(lp3386
I108
aI7
aa(lp3387
I111
aI7
aa(lp3388
I113
aI7
aa(lp3389
I115
aI7
aa(lp3390
I117
aI7
aa(lp3391
I119
aI7
aa(lp3392
I121
aI7
aa(lp3393
I123
aI7
aa(lp3394
I125
aI7
aa(lp3395
I127
aI7
aa(lp3396
I130
aI7
aa(lp3397
I132
aI7
aa(lp3398
I138
aI7
aa(lp3399
I142
aF7.0
aa(lp3400
I150
aI7
aa(lp3401
I154
aI7
aa(lp3402
I157
aI7
aa(lp3403
I161
aI7
aasg13
I199
sg14
I7
sg17
g18
sbsg49
(iobjs
Texture
p3404
(dp3405
g13
I199
sg52
(dp3406
g63
(iobjs
KeyFrame
p3407
(dp3408
g11
(lp3409
(lp3410
I1
ag67
aa(lp3411
I10
ag67
aa(lp3412
I18
ag67
aa(lp3413
I20
ag67
aa(lp3414
I28
ag67
aa(lp3415
I35
ag67
aa(lp3416
I39
ag67
aa(lp3417
I40
ag67
aa(lp3418
I43
ag67
aa(lp3419
I50
ag67
aa(lp3420
I54
ag67
aa(lp3421
I61
ag67
aa(lp3422
I65
ag67
aa(lp3423
I74
ag67
aa(lp3424
I75
ag67
aa(lp3425
I81
ag67
aa(lp3426
I90
ag67
aa(lp3427
I93
ag67
aa(lp3428
I100
ag67
aa(lp3429
I102
ag67
aa(lp3430
I104
ag67
aa(lp3431
I106
ag67
aa(lp3432
I108
ag67
aa(lp3433
I111
ag67
aa(lp3434
I113
ag67
aa(lp3435
I115
ag67
aa(lp3436
I117
ag67
aa(lp3437
I119
ag67
aa(lp3438
I121
ag67
aa(lp3439
I123
ag67
aa(lp3440
I125
ag67
aa(lp3441
I127
ag67
aa(lp3442
I130
ag67
aa(lp3443
I132
ag67
aa(lp3444
I138
ag67
aa(lp3445
I142
ag67
aa(lp3446
I150
ag67
aa(lp3447
I154
ag67
aa(lp3448
I157
ag67
aa(lp3449
I161
ag67
aasg13
I199
sg14
g67
sg17
g30
sbsg72
(iobjs
KeyFrame
p3450
(dp3451
g11
(lp3452
(lp3453
I1
aI01
aa(lp3454
I10
aI01
aa(lp3455
I18
aI01
aa(lp3456
I20
aI01
aa(lp3457
I28
aI01
aa(lp3458
I35
aI01
aa(lp3459
I39
aI01
aa(lp3460
I40
aI01
aa(lp3461
I43
aI01
aa(lp3462
I50
aI01
aa(lp3463
I54
aI01
aa(lp3464
I61
aI01
aa(lp3465
I65
aI01
aa(lp3466
I74
aI01
aa(lp3467
I75
aI01
aa(lp3468
I81
aI01
aa(lp3469
I90
aI01
aa(lp3470
I93
aI01
aa(lp3471
I100
aI01
aa(lp3472
I102
aI01
aa(lp3473
I104
aI01
aa(lp3474
I106
aI01
aa(lp3475
I108
aI01
aa(lp3476
I111
aI01
aa(lp3477
I113
aI01
aa(lp3478
I115
aI01
aa(lp3479
I117
aI01
aa(lp3480
I119
aI01
aa(lp3481
I121
aI01
aa(lp3482
I123
aI01
aa(lp3483
I125
aI01
aa(lp3484
I127
aI01
aa(lp3485
I130
aI01
aa(lp3486
I132
aI01
aa(lp3487
I138
aI01
aa(lp3488
I142
aI01
aa(lp3489
I150
aI01
aa(lp3490
I154
aI01
aa(lp3491
I157
aI01
aa(lp3492
I161
aI01
aasg13
I199
sg14
I01
sg17
g30
sbsg76
(iobjs
KeyFrame
p3493
(dp3494
g11
(lp3495
(lp3496
I1
aI01
aa(lp3497
I10
aI01
aa(lp3498
I18
aI01
aa(lp3499
I20
aI01
aa(lp3500
I28
aI01
aa(lp3501
I35
aI01
aa(lp3502
I39
aI01
aa(lp3503
I40
aI01
aa(lp3504
I43
aI01
aa(lp3505
I50
aI01
aa(lp3506
I54
aI01
aa(lp3507
I61
aI01
aa(lp3508
I65
aI01
aa(lp3509
I74
aI01
aa(lp3510
I75
aI01
aa(lp3511
I81
aI01
aa(lp3512
I90
aI01
aa(lp3513
I93
aI01
aa(lp3514
I100
aI01
aa(lp3515
I102
aI01
aa(lp3516
I104
aI01
aa(lp3517
I106
aI01
aa(lp3518
I108
aI01
aa(lp3519
I111
aI01
aa(lp3520
I113
aI01
aa(lp3521
I115
aI01
aa(lp3522
I117
aI01
aa(lp3523
I119
aI01
aa(lp3524
I121
aI01
aa(lp3525
I123
aI01
aa(lp3526
I125
aI01
aa(lp3527
I127
aI01
aa(lp3528
I130
aI01
aa(lp3529
I132
aI01
aa(lp3530
I138
aI01
aa(lp3531
I142
aI01
aa(lp3532
I150
aI01
aa(lp3533
I154
aI01
aa(lp3534
I157
aI01
aa(lp3535
I161
aI01
aasg13
I199
sg14
I01
sg17
g30
sbsg49
(iobjs
KeyFrame
p3536
(dp3537
g11
(lp3538
(lp3539
I1
ag57
aa(lp3540
I10
ag57
aa(lp3541
I18
ag57
aa(lp3542
I20
ag57
aa(lp3543
I28
ag57
aa(lp3544
I35
ag57
aa(lp3545
I39
ag57
aa(lp3546
I40
ag57
aa(lp3547
I43
ag57
aa(lp3548
I50
ag57
aa(lp3549
I54
ag57
aa(lp3550
I61
ag57
aa(lp3551
I65
ag57
aa(lp3552
I74
ag57
aa(lp3553
I75
ag57
aa(lp3554
I81
ag57
aa(lp3555
I90
ag57
aa(lp3556
I93
ag57
aa(lp3557
I100
ag57
aa(lp3558
I102
ag57
aa(lp3559
I104
ag57
aa(lp3560
I106
ag57
aa(lp3561
I108
ag57
aa(lp3562
I111
ag57
aa(lp3563
I113
ag57
aa(lp3564
I115
ag57
aa(lp3565
I117
ag57
aa(lp3566
I119
ag57
aa(lp3567
I121
ag57
aa(lp3568
I123
ag57
aa(lp3569
I125
ag57
aa(lp3570
I127
ag57
aa(lp3571
I130
ag57
aa(lp3572
I132
ag57
aa(lp3573
I138
ag57
aa(lp3574
I142
ag57
aa(lp3575
I150
ag57
aa(lp3576
I154
ag57
aa(lp3577
I157
ag57
aa(lp3578
I161
ag57
aasg13
I199
sg14
g57
sg17
g30
sbsg58
(iobjs
KeyFrame
p3579
(dp3580
g11
(lp3581
(lp3582
I1
ag62
aa(lp3583
I10
ag62
aa(lp3584
I18
ag62
aa(lp3585
I20
ag62
aa(lp3586
I28
ag62
aa(lp3587
I35
ag62
aa(lp3588
I39
ag62
aa(lp3589
I40
ag62
aa(lp3590
I43
ag62
aa(lp3591
I50
ag62
aa(lp3592
I54
ag62
aa(lp3593
I61
ag62
aa(lp3594
I65
ag62
aa(lp3595
I74
ag62
aa(lp3596
I75
ag62
aa(lp3597
I81
ag62
aa(lp3598
I90
ag62
aa(lp3599
I93
ag62
aa(lp3600
I100
ag62
aa(lp3601
I102
ag62
aa(lp3602
I104
ag62
aa(lp3603
I106
ag62
aa(lp3604
I108
ag62
aa(lp3605
I111
ag62
aa(lp3606
I113
ag62
aa(lp3607
I115
ag62
aa(lp3608
I117
ag62
aa(lp3609
I119
ag62
aa(lp3610
I121
ag62
aa(lp3611
I123
ag62
aa(lp3612
I125
ag62
aa(lp3613
I127
ag62
aa(lp3614
I130
ag62
aa(lp3615
I132
ag62
aa(lp3616
I138
ag62
aa(lp3617
I142
ag62
aa(lp3618
I150
ag62
aa(lp3619
I154
ag62
aa(lp3620
I157
ag62
aa(lp3621
I161
ag62
aasg13
I199
sg14
g62
sg17
g30
sbsg68
(iobjs
KeyFrame
p3622
(dp3623
g11
(lp3624
(lp3625
I1
aI00
aa(lp3626
I10
aI00
aa(lp3627
I18
aI00
aa(lp3628
I20
aI00
aa(lp3629
I28
aI00
aa(lp3630
I35
aI00
aa(lp3631
I39
aI00
aa(lp3632
I40
aI00
aa(lp3633
I43
aI00
aa(lp3634
I50
aI00
aa(lp3635
I54
aI00
aa(lp3636
I61
aI00
aa(lp3637
I65
aI00
aa(lp3638
I74
aI00
aa(lp3639
I75
aI00
aa(lp3640
I81
aI00
aa(lp3641
I90
aI00
aa(lp3642
I93
aI00
aa(lp3643
I100
aI00
aa(lp3644
I102
aI00
aa(lp3645
I104
aI00
aa(lp3646
I106
aI00
aa(lp3647
I108
aI00
aa(lp3648
I111
aI00
aa(lp3649
I113
aI00
aa(lp3650
I115
aI00
aa(lp3651
I117
aI00
aa(lp3652
I119
aI00
aa(lp3653
I121
aI00
aa(lp3654
I123
aI00
aa(lp3655
I125
aI00
aa(lp3656
I127
aI00
aa(lp3657
I130
aI00
aa(lp3658
I132
aI00
aa(lp3659
I138
aI00
aa(lp3660
I142
aI00
aa(lp3661
I150
aI00
aa(lp3662
I154
aI00
aa(lp3663
I157
aI00
aa(lp3664
I161
aI00
aasg13
I199
sg14
I00
sg17
g30
sbssg80
(dp3665
g63
g82
sg68
g83
sg72
g84
sg58
g85
sg76
g86
ssbsg87
(iobjs
KeyFrame
p3666
(dp3667
g11
(lp3668
(lp3669
I1
aI15
aa(lp3670
I10
aI15
aa(lp3671
I18
aF-44.488269736124721
aa(lp3672
I20
aF-53.919524832141008
aa(lp3673
F25.600000000000001
aF2.1274704258522092
aa(lp3674
F31.100000000000001
aF-89.279122205782926
aa(lp3675
F36.100000000000001
aF-48.691037758236988
aa(lp3676
I39
aF-80.018962840610939
aa(lp3677
I43
aF-59.989796740459852
aa(lp3678
I50
aF32.546268900714317
aa(lp3679
I54
aF32.546268900714317
aa(lp3680
I61
aF7.9733651729763722
aa(lp3681
F67.699999999999989
aF5.1085570698842275
aa(lp3682
F71.099999999999994
aF78.857255807395234
aa(lp3683
I74
aF89.411550871174882
aa(lp3684
I81
aF-17.879771681040239
aa(lp3685
I90
aF-17.879771681040239
aa(lp3686
I93
aF-22.296610097386605
aa(lp3687
I100
aF0.61589357216323037
aa(lp3688
I102
aF0.61589357216323037
aa(lp3689
I104
aF0.61589357216323037
aa(lp3690
I106
aF0.61589357216323037
aa(lp3691
I108
aF0.61589357216323037
aa(lp3692
I111
aF0.61589357216323037
aa(lp3693
I113
aF0.61589357216323037
aa(lp3694
I115
aF0.61589357216323037
aa(lp3695
I117
aF0.61589357216323037
aa(lp3696
I119
aF0.61589357216323037
aa(lp3697
I121
aF0.61589357216323037
aa(lp3698
I123
aF0.61589357216323037
aa(lp3699
I125
aF1.9890909235194751
aa(lp3700
I127
aF1.9890909235194751
aa(lp3701
I130
aF1.9890909235194751
aa(lp3702
I132
aF1.9890909235194751
aa(lp3703
I138
aF1.9890909235194751
aa(lp3704
I142
aF-25.472313113117487
aa(lp3705
I150
aF18.118905078860081
aa(lp3706
I154
aF26.085660141847228
aa(lp3707
I157
aF21.292603805476034
aa(lp3708
I161
aF15.0
aasg13
I199
sg14
F15.0
sg17
g18
sbsg91
(iobjs
KeyFrame
p3709
(dp3710
g11
(lp3711
(lp3712
I1
aI00
aa(lp3713
I10
aI00
aa(lp3714
I18
aI00
aa(lp3715
I20
aI00
aa(lp3716
F25.600000000000001
aI00
aa(lp3717
F31.100000000000001
aI00
aa(lp3718
F36.100000000000001
aI00
aa(lp3719
I39
aI00
aa(lp3720
I43
aI00
aa(lp3721
I50
aI00
aa(lp3722
I54
aI00
aa(lp3723
I61
aI00
aa(lp3724
F67.699999999999989
aI00
aa(lp3725
F71.099999999999994
aI00
aa(lp3726
I74
aI00
aa(lp3727
I81
aI00
aa(lp3728
I90
aI00
aa(lp3729
I93
aI00
aa(lp3730
I100
aI00
aa(lp3731
I102
aI00
aa(lp3732
I104
aI00
aa(lp3733
I106
aI00
aa(lp3734
I108
aI00
aa(lp3735
I111
aI00
aa(lp3736
I113
aI00
aa(lp3737
I115
aI00
aa(lp3738
I117
aI00
aa(lp3739
I119
aI00
aa(lp3740
I121
aI00
aa(lp3741
I123
aI00
aa(lp3742
I125
aI00
aa(lp3743
I127
aI00
aa(lp3744
I130
aI00
aa(lp3745
I132
aI00
aa(lp3746
I138
aI00
aa(lp3747
I142
aI00
aa(lp3748
I150
aI00
aa(lp3749
I154
aI00
aa(lp3750
I157
aI00
aa(lp3751
I161
aI00
aasg13
I199
sg14
I00
sg17
g30
sbsg95
(iobjs
KeyFrame
p3752
(dp3753
g11
(lp3754
(lp3755
I1
aI00
aa(lp3756
I10
aI00
aa(lp3757
I18
aI00
aa(lp3758
I20
aI00
aa(lp3759
F25.600000000000001
aI00
aa(lp3760
F31.100000000000001
aI00
aa(lp3761
F36.100000000000001
aI00
aa(lp3762
I39
aI00
aa(lp3763
I43
aI00
aa(lp3764
I50
aI00
aa(lp3765
I54
aI00
aa(lp3766
I61
aI00
aa(lp3767
F67.699999999999989
aI00
aa(lp3768
F71.099999999999994
aI00
aa(lp3769
I74
aI00
aa(lp3770
I81
aI00
aa(lp3771
I90
aI00
aa(lp3772
I93
aI00
aa(lp3773
I100
aI00
aa(lp3774
I102
aI00
aa(lp3775
I104
aI00
aa(lp3776
I106
aI00
aa(lp3777
I108
aI00
aa(lp3778
I111
aI00
aa(lp3779
I113
aI00
aa(lp3780
I115
aI00
aa(lp3781
I117
aI00
aa(lp3782
I119
aI00
aa(lp3783
I121
aI00
aa(lp3784
I123
aI00
aa(lp3785
I125
aI00
aa(lp3786
I127
aI00
aa(lp3787
I130
aI00
aa(lp3788
I132
aI00
aa(lp3789
I138
aI00
aa(lp3790
I142
aI00
aa(lp3791
I150
aI00
aa(lp3792
I154
aI00
aa(lp3793
I157
aI00
aa(lp3794
I161
aI00
aasg13
I199
sg14
I00
sg17
g30
sbsg99
(lp3795
(dp3796
g26
(iobjs
KeyFrame
p3797
(dp3798
g11
(lp3799
(lp3800
I80
aI00
aa(lp3801
I81
aI00
aa(lp3802
I90
aI00
aa(lp3803
I100
aI00
aa(lp3804
I102
aI00
aa(lp3805
I104
aI00
aa(lp3806
I106
aI00
aa(lp3807
I108
aI00
aa(lp3808
I111
aI00
aa(lp3809
I113
aI00
aa(lp3810
I115
aI00
aa(lp3811
I117
aI00
aa(lp3812
I119
aI00
aa(lp3813
I121
aI00
aa(lp3814
I123
aI00
aa(lp3815
I125
aI00
aa(lp3816
I127
aI00
aa(lp3817
I130
aI00
aa(lp3818
I132
aI00
aa(lp3819
I138
aI00
aa(lp3820
I142
aI00
aa(lp3821
I143
aI00
aa(lp3822
I161
aI00
aasg13
I199
sg14
I00
sg17
g30
sbsg31
(iobjs
KeyFrame
p3823
(dp3824
g11
(lp3825
(lp3826
I80
aF5.6548579869067135
aa(lp3827
I81
aF5.6548579869067135
aa(lp3828
I90
aF172.60449157682049
aa(lp3829
I100
aF172.60449157682049
aa(lp3830
I102
aF172.60449157682049
aa(lp3831
I104
aF172.60449157682049
aa(lp3832
I106
aF172.60449157682049
aa(lp3833
I108
aF172.60449157682049
aa(lp3834
I111
aF172.60449157682049
aa(lp3835
I113
aF172.60449157682049
aa(lp3836
I115
aF172.60449157682049
aa(lp3837
I117
aF172.60449157682049
aa(lp3838
I119
aF172.60449157682049
aa(lp3839
I121
aF172.60449157682049
aa(lp3840
I123
aF172.60449157682049
aa(lp3841
I125
aF172.60449157682049
aa(lp3842
I127
aF172.60449157682049
aa(lp3843
I130
aF172.60449157682049
aa(lp3844
I132
aF172.60449157682049
aa(lp3845
I138
aF172.60449157682049
aa(lp3846
I142
aF9.591894684821515
aa(lp3847
I143
aF9.591894684821515
aa(lp3848
I161
aF9.591894684821515
aasg13
I199
sg14
F9.591894684821515
sg17
g18
sbsg35
(iobjs
KeyFrame
p3849
(dp3850
g11
(lp3851
(lp3852
I100
a(I255
F184.6346559394151
F92.331029764275499
tp3853
aa(lp3854
I102
ag3853
aa(lp3855
I104
ag3853
aa(lp3856
I106
ag3853
aa(lp3857
I108
ag3853
aa(lp3858
I111
ag3853
aa(lp3859
I113
ag3853
aa(lp3860
I115
ag3853
aa(lp3861
I117
ag3853
aa(lp3862
I119
ag3853
aa(lp3863
I121
ag3853
aa(lp3864
I123
ag3853
aa(lp3865
I125
ag3853
aa(lp3866
I127
ag3853
aa(lp3867
I130
ag3853
aa(lp3868
I132
ag3853
aa(lp3869
I138
ag3853
aa(lp3870
I142
ag3853
aa(lp3871
I143
ag3853
aa(lp3872
I161
ag3853
aasg13
I199
sg14
g3853
sg17
g18
sbsg8
(iobjs
KeyFrame
p3873
(dp3874
g11
(lp3875
(lp3876
I80
a(iobjs
Vector
p3877
(dp3878
g6
I0
sg7
I0
sbaa(lp3879
I81
a(iobjs
Vector
p3880
(dp3881
g6
I0
sg7
I0
sbaa(lp3882
I90
a(iobjs
Vector
p3883
(dp3884
g6
I0
sg7
I0
sbaa(lp3885
I100
a(iobjs
Vector
p3886
(dp3887
g6
I0
sg7
I0
sbaa(lp3888
I102
a(iobjs
Vector
p3889
(dp3890
g6
I0
sg7
I0
sbaa(lp3891
I104
a(iobjs
Vector
p3892
(dp3893
g6
I0
sg7
I0
sbaa(lp3894
I106
a(iobjs
Vector
p3895
(dp3896
g6
I0
sg7
I0
sbaa(lp3897
I108
a(iobjs
Vector
p3898
(dp3899
g6
I0
sg7
I0
sbaa(lp3900
I111
a(iobjs
Vector
p3901
(dp3902
g6
I0
sg7
I0
sbaa(lp3903
I113
a(iobjs
Vector
p3904
(dp3905
g6
I0
sg7
I0
sbaa(lp3906
I115
a(iobjs
Vector
p3907
(dp3908
g6
I0
sg7
I0
sbaa(lp3909
I117
a(iobjs
Vector
p3910
(dp3911
g6
I0
sg7
I0
sbaa(lp3912
I119
a(iobjs
Vector
p3913
(dp3914
g6
I0
sg7
I0
sbaa(lp3915
I121
a(iobjs
Vector
p3916
(dp3917
g6
I0
sg7
I0
sbaa(lp3918
I123
a(iobjs
Vector
p3919
(dp3920
g6
I0
sg7
I0
sbaa(lp3921
I125
a(iobjs
Vector
p3922
(dp3923
g6
I0
sg7
I0
sbaa(lp3924
I127
a(iobjs
Vector
p3925
(dp3926
g6
I0
sg7
I0
sbaa(lp3927
I130
a(iobjs
Vector
p3928
(dp3929
g6
I0
sg7
I0
sbaa(lp3930
I132
a(iobjs
Vector
p3931
(dp3932
g6
I0
sg7
I0
sbaa(lp3933
I138
a(iobjs
Vector
p3934
(dp3935
g6
I0
sg7
I0
sbaa(lp3936
I142
a(iobjs
Vector
p3937
(dp3938
g6
I0
sg7
I0
sbaa(lp3939
I143
a(iobjs
Vector
p3940
(dp3941
g6
I0
sg7
I0
sbaa(lp3942
I161
a(iobjs
Vector
p3943
(dp3944
g6
I0
sg7
I0
sbaasg13
I199
sg14
g3943
sg17
g18
sbsg45
(iobjs
KeyFrame
p3945
(dp3946
g11
(lp3947
(lp3948
I80
aI7
aa(lp3949
I81
aI7
aa(lp3950
I90
aI7
aa(lp3951
I100
aI7
aa(lp3952
I102
aI7
aa(lp3953
I104
aI7
aa(lp3954
I106
aI7
aa(lp3955
I108
aI7
aa(lp3956
I111
aI7
aa(lp3957
I113
aI7
aa(lp3958
I115
aI7
aa(lp3959
I117
aI7
aa(lp3960
I119
aI7
aa(lp3961
I121
aI7
aa(lp3962
I123
aI7
aa(lp3963
I125
aI7
aa(lp3964
I127
aI7
aa(lp3965
I130
aI7
aa(lp3966
I132
aI7
aa(lp3967
I138
aI7
aa(lp3968
I142
aI7
aa(lp3969
I143
aI7
aa(lp3970
I161
aI7
aasg13
I199
sg14
I7
sg17
g18
sbsg49
(iobjs
Texture
p3971
(dp3972
g13
I199
sg52
(dp3973
g63
(iobjs
KeyFrame
p3974
(dp3975
g11
(lp3976
(lp3977
I1
ag67
aa(lp3978
I80
ag67
aa(lp3979
I81
ag67
aa(lp3980
I90
ag67
aa(lp3981
I100
ag67
aa(lp3982
I102
ag67
aa(lp3983
I104
ag67
aa(lp3984
I106
ag67
aa(lp3985
I108
ag67
aa(lp3986
I111
ag67
aa(lp3987
I113
ag67
aa(lp3988
I115
ag67
aa(lp3989
I117
ag67
aa(lp3990
I119
ag67
aa(lp3991
I121
ag67
aa(lp3992
I123
ag67
aa(lp3993
I125
ag67
aa(lp3994
I127
ag67
aa(lp3995
I130
ag67
aa(lp3996
I132
ag67
aa(lp3997
I138
ag67
aa(lp3998
I142
ag67
aa(lp3999
I143
ag67
aa(lp4000
I161
ag67
aasg13
I199
sg14
g67
sg17
g30
sbsg72
(iobjs
KeyFrame
p4001
(dp4002
g11
(lp4003
(lp4004
I1
aI01
aa(lp4005
I80
aI01
aa(lp4006
I81
aI01
aa(lp4007
I90
aI01
aa(lp4008
I100
aI01
aa(lp4009
I102
aI01
aa(lp4010
I104
aI01
aa(lp4011
I106
aI01
aa(lp4012
I108
aI01
aa(lp4013
I111
aI01
aa(lp4014
I113
aI01
aa(lp4015
I115
aI01
aa(lp4016
I117
aI01
aa(lp4017
I119
aI01
aa(lp4018
I121
aI01
aa(lp4019
I123
aI01
aa(lp4020
I125
aI01
aa(lp4021
I127
aI01
aa(lp4022
I130
aI01
aa(lp4023
I132
aI01
aa(lp4024
I138
aI01
aa(lp4025
I142
aI01
aa(lp4026
I143
aI01
aa(lp4027
I161
aI01
aasg13
I199
sg14
I01
sg17
g30
sbsg76
(iobjs
KeyFrame
p4028
(dp4029
g11
(lp4030
(lp4031
I1
aI01
aa(lp4032
I80
aI01
aa(lp4033
I81
aI01
aa(lp4034
I90
aI01
aa(lp4035
I100
aI01
aa(lp4036
I102
aI01
aa(lp4037
I104
aI01
aa(lp4038
I106
aI01
aa(lp4039
I108
aI01
aa(lp4040
I111
aI01
aa(lp4041
I113
aI01
aa(lp4042
I115
aI01
aa(lp4043
I117
aI01
aa(lp4044
I119
aI01
aa(lp4045
I121
aI01
aa(lp4046
I123
aI01
aa(lp4047
I125
aI01
aa(lp4048
I127
aI01
aa(lp4049
I130
aI01
aa(lp4050
I132
aI01
aa(lp4051
I138
aI01
aa(lp4052
I142
aI01
aa(lp4053
I143
aI01
aa(lp4054
I161
aI01
aasg13
I199
sg14
I01
sg17
g30
sbsg49
(iobjs
KeyFrame
p4055
(dp4056
g11
(lp4057
(lp4058
I1
ag57
aa(lp4059
I80
ag57
aa(lp4060
I81
ag57
aa(lp4061
I90
ag57
aa(lp4062
I100
ag57
aa(lp4063
I102
ag57
aa(lp4064
I104
ag57
aa(lp4065
I106
ag57
aa(lp4066
I108
ag57
aa(lp4067
I111
ag57
aa(lp4068
I113
ag57
aa(lp4069
I115
ag57
aa(lp4070
I117
ag57
aa(lp4071
I119
ag57
aa(lp4072
I121
ag57
aa(lp4073
I123
ag57
aa(lp4074
I125
ag57
aa(lp4075
I127
ag57
aa(lp4076
I130
ag57
aa(lp4077
I132
ag57
aa(lp4078
I138
ag57
aa(lp4079
I142
ag57
aa(lp4080
I143
ag57
aa(lp4081
I161
ag57
aasg13
I199
sg14
g57
sg17
g30
sbsg58
(iobjs
KeyFrame
p4082
(dp4083
g11
(lp4084
(lp4085
I1
ag62
aa(lp4086
I80
ag62
aa(lp4087
I81
ag62
aa(lp4088
I90
ag62
aa(lp4089
I100
ag62
aa(lp4090
I102
ag62
aa(lp4091
I104
ag62
aa(lp4092
I106
ag62
aa(lp4093
I108
ag62
aa(lp4094
I111
ag62
aa(lp4095
I113
ag62
aa(lp4096
I115
ag62
aa(lp4097
I117
ag62
aa(lp4098
I119
ag62
aa(lp4099
I121
ag62
aa(lp4100
I123
ag62
aa(lp4101
I125
ag62
aa(lp4102
I127
ag62
aa(lp4103
I130
ag62
aa(lp4104
I132
ag62
aa(lp4105
I138
ag62
aa(lp4106
I142
ag62
aa(lp4107
I143
ag62
aa(lp4108
I161
ag62
aasg13
I199
sg14
g62
sg17
g30
sbsg68
(iobjs
KeyFrame
p4109
(dp4110
g11
(lp4111
(lp4112
I1
aI00
aa(lp4113
I80
aI00
aa(lp4114
I81
aI00
aa(lp4115
I90
aI00
aa(lp4116
I100
aI00
aa(lp4117
I102
aI00
aa(lp4118
I104
aI00
aa(lp4119
I106
aI00
aa(lp4120
I108
aI00
aa(lp4121
I111
aI00
aa(lp4122
I113
aI00
aa(lp4123
I115
aI00
aa(lp4124
I117
aI00
aa(lp4125
I119
aI00
aa(lp4126
I121
aI00
aa(lp4127
I123
aI00
aa(lp4128
I125
aI00
aa(lp4129
I127
aI00
aa(lp4130
I130
aI00
aa(lp4131
I132
aI00
aa(lp4132
I138
aI00
aa(lp4133
I142
aI00
aa(lp4134
I143
aI00
aa(lp4135
I161
aI00
aasg13
I199
sg14
I00
sg17
g30
sbssg80
(dp4136
g63
g82
sg76
g86
sg72
g84
sg58
g85
sg68
g83
ssbsg87
(iobjs
KeyFrame
p4137
(dp4138
g11
(lp4139
(lp4140
I80
aF-19.321103618340544
aa(lp4141
I81
aF-19.321103618340544
aa(lp4142
I90
aF-15.383248939049906
aa(lp4143
I100
aF-5.2571309505902946
aa(lp4144
I102
aF-6.0487883425626023
aa(lp4145
I104
aF-6.0487883425626023
aa(lp4146
I106
aF-6.0487883425626023
aa(lp4147
I108
aF-6.0487883425626023
aa(lp4148
I111
aF-1.2240691461598772
aa(lp4149
I113
aF-1.2240691461598772
aa(lp4150
I115
aF-1.2240691461598772
aa(lp4151
I117
aF-1.2240691461598772
aa(lp4152
I119
aF-1.2240691461598772
aa(lp4153
I121
aF-0.52683334247427638
aa(lp4154
I123
aF0.47665102473796694
aa(lp4155
I125
aF0.47665102473796694
aa(lp4156
I127
aF0.47665102473796694
aa(lp4157
I130
aF0.47665102473796694
aa(lp4158
I132
aF0.47665102473796694
aa(lp4159
I138
aF3.0999415375210333
aa(lp4160
I142
aF-3.6985593318262886
aa(lp4161
I143
aF-3.6985593318262886
aa(lp4162
I161
aF-3.6985593318262886
aasg13
I199
sg14
F-3.6985593318262886
sg17
g18
sbsg91
(iobjs
KeyFrame
p4163
(dp4164
g11
(lp4165
(lp4166
I80
aI00
aa(lp4167
I81
aI00
aa(lp4168
I90
aI00
aa(lp4169
I100
aI00
aa(lp4170
I102
aI00
aa(lp4171
I104
aI00
aa(lp4172
I106
aI00
aa(lp4173
I108
aI00
aa(lp4174
I111
aI00
aa(lp4175
I113
aI00
aa(lp4176
I115
aI00
aa(lp4177
I117
aI00
aa(lp4178
I119
aI00
aa(lp4179
I121
aI00
aa(lp4180
I123
aI00
aa(lp4181
I125
aI00
aa(lp4182
I127
aI00
aa(lp4183
I130
aI00
aa(lp4184
I132
aI00
aa(lp4185
I138
aI00
aa(lp4186
I142
aI00
aa(lp4187
I143
aI00
aa(lp4188
I161
aI00
aasg13
I199
sg14
I00
sg17
g30
sbsg95
(iobjs
KeyFrame
p4189
(dp4190
g11
(lp4191
(lp4192
I80
aI01
aa(lp4193
I81
aI00
aa(lp4194
I90
aI00
aa(lp4195
I100
aI00
aa(lp4196
I102
aI00
aa(lp4197
I104
aI00
aa(lp4198
I106
aI00
aa(lp4199
I108
aI00
aa(lp4200
I111
aI00
aa(lp4201
I113
aI00
aa(lp4202
I115
aI00
aa(lp4203
I117
aI00
aa(lp4204
I119
aI00
aa(lp4205
I121
aI00
aa(lp4206
I123
aI00
aa(lp4207
I125
aI00
aa(lp4208
I127
aI00
aa(lp4209
I130
aI00
aa(lp4210
I132
aI00
aa(lp4211
I138
aI00
aa(lp4212
I142
aI00
aa(lp4213
I143
aI01
aa(lp4214
I161
aI01
aasg13
I199
sg14
I01
sg17
g30
sbsg99
(lp4215
sasasa(dp4216
g26
(iobjs
KeyFrame
p4217
(dp4218
g11
(lp4219
(lp4220
I1
aI00
aa(lp4221
I10
aI00
aa(lp4222
I18
aI00
aa(lp4223
I20
aI00
aa(lp4224
F25.600000000000001
aI00
aa(lp4225
F31.100000000000001
aI00
aa(lp4226
F36.100000000000001
aI00
aa(lp4227
I39
aI00
aa(lp4228
I43
aI00
aa(lp4229
I50
aI00
aa(lp4230
I54
aI00
aa(lp4231
I61
aI00
aa(lp4232
F67.699999999999989
aI00
aa(lp4233
F71.099999999999994
aI00
aa(lp4234
I74
aI00
aa(lp4235
I81
aI00
aa(lp4236
I90
aI00
aa(lp4237
I93
aI00
aa(lp4238
I100
aI00
aa(lp4239
I102
aI00
aa(lp4240
I104
aI00
aa(lp4241
I106
aI00
aa(lp4242
I108
aI00
aa(lp4243
I111
aI00
aa(lp4244
I113
aI00
aa(lp4245
I115
aI00
aa(lp4246
I117
aI00
aa(lp4247
I119
aI00
aa(lp4248
I121
aI00
aa(lp4249
I123
aI00
aa(lp4250
I125
aI00
aa(lp4251
I127
aI00
aa(lp4252
I130
aI00
aa(lp4253
I132
aI00
aa(lp4254
I138
aI00
aa(lp4255
I141
aI00
aa(lp4256
I150
aI00
aa(lp4257
I154
aI00
aa(lp4258
I157
aI00
aa(lp4259
I161
aI00
aasg13
I199
sg14
I00
sg17
g30
sbsg31
(iobjs
KeyFrame
p4260
(dp4261
g11
(lp4262
(lp4263
I1
aI40
aa(lp4264
I10
aI40
aa(lp4265
I18
aI40
aa(lp4266
I20
aI40
aa(lp4267
F25.600000000000001
aI40
aa(lp4268
F31.100000000000001
aF40.0
aa(lp4269
F36.100000000000001
aI40
aa(lp4270
I39
aI40
aa(lp4271
I43
aI40
aa(lp4272
I50
aI40
aa(lp4273
I54
aI40
aa(lp4274
I61
aF40.0
aa(lp4275
F67.699999999999989
aI40
aa(lp4276
F71.099999999999994
aI40
aa(lp4277
I74
aI40
aa(lp4278
I81
aI40
aa(lp4279
I90
aI40
aa(lp4280
I93
aI40
aa(lp4281
I100
aI40
aa(lp4282
I102
aI40
aa(lp4283
I104
aI40
aa(lp4284
I106
aI40
aa(lp4285
I108
aI40
aa(lp4286
I111
aI40
aa(lp4287
I113
aI40
aa(lp4288
I115
aI40
aa(lp4289
I117
aI40
aa(lp4290
I119
aI40
aa(lp4291
I121
aI40
aa(lp4292
I123
aI40
aa(lp4293
I125
aI40
aa(lp4294
I127
aI40
aa(lp4295
I130
aI40
aa(lp4296
I132
aI40
aa(lp4297
I138
aI40
aa(lp4298
I141
aF40.0
aa(lp4299
I150
aI40
aa(lp4300
I154
aI40
aa(lp4301
I157
aI40
aa(lp4302
I161
aI40
aasg13
I199
sg14
I40
sg17
g18
sbsg35
(iobjs
KeyFrame
p4303
(dp4304
g11
(lp4305
(lp4306
I1
a(lp4307
I0
aI0
aI0
aaa(lp4308
I10
a(lp4309
I0
aI0
aI0
aaa(lp4310
I18
a(lp4311
I0
aI0
aI0
aaa(lp4312
I20
a(lp4313
I0
aI0
aI0
aaa(lp4314
F25.600000000000001
a(lp4315
I0
aI0
aI0
aaa(lp4316
F31.100000000000001
a(lp4317
F0.0
aF0.0
aF0.0
aaa(lp4318
F36.100000000000001
a(lp4319
I0
aI0
aI0
aaa(lp4320
I39
a(lp4321
I0
aI0
aI0
aaa(lp4322
I43
a(lp4323
I0
aI0
aI0
aaa(lp4324
I50
a(lp4325
I0
aI0
aI0
aaa(lp4326
I54
a(lp4327
I0
aI0
aI0
aaa(lp4328
I61
a(lp4329
F0.0
aF0.0
aF0.0
aaa(lp4330
F67.699999999999989
a(lp4331
I0
aI0
aI0
aaa(lp4332
F71.099999999999994
a(lp4333
I0
aI0
aI0
aaa(lp4334
I74
a(lp4335
I0
aI0
aI0
aaa(lp4336
I81
a(lp4337
I0
aI0
aI0
aaa(lp4338
I90
a(lp4339
I0
aI0
aI0
aaa(lp4340
I93
a(lp4341
I0
aI0
aI0
aaa(lp4342
I100
a(lp4343
I0
aI0
aI0
aaa(lp4344
I102
a(lp4345
I0
aI0
aI0
aaa(lp4346
I104
a(lp4347
I0
aI0
aI0
aaa(lp4348
I106
a(lp4349
I0
aI0
aI0
aaa(lp4350
I108
a(lp4351
I0
aI0
aI0
aaa(lp4352
I111
a(lp4353
I0
aI0
aI0
aaa(lp4354
I113
a(lp4355
I0
aI0
aI0
aaa(lp4356
I115
a(lp4357
I0
aI0
aI0
aaa(lp4358
I117
a(lp4359
I0
aI0
aI0
aaa(lp4360
I119
a(lp4361
I0
aI0
aI0
aaa(lp4362
I121
a(lp4363
I0
aI0
aI0
aaa(lp4364
I123
a(lp4365
I0
aI0
aI0
aaa(lp4366
I125
a(lp4367
I0
aI0
aI0
aaa(lp4368
I127
a(lp4369
I0
aI0
aI0
aaa(lp4370
I130
a(lp4371
I0
aI0
aI0
aaa(lp4372
I132
a(lp4373
I0
aI0
aI0
aaa(lp4374
I138
a(lp4375
I0
aI0
aI0
aaa(lp4376
I141
a(lp4377
F0.0
aF0.0
aF0.0
aaa(lp4378
I150
a(lp4379
I0
aI0
aI0
aaa(lp4380
I154
a(lp4381
I0
aI0
aI0
aaa(lp4382
I157
a(lp4383
I0
aI0
aI0
aaa(lp4384
I161
a(lp4385
I0
aI0
aI0
aaasg13
I199
sg14
g4385
sg17
g18
sbsg8
(iobjs
KeyFrame
p4386
(dp4387
g11
(lp4388
(lp4389
I1
a(iobjs
Vector
p4390
(dp4391
g6
I0
sg7
I0
sbaa(lp4392
I10
a(iobjs
Vector
p4393
(dp4394
g6
I0
sg7
I0
sbaa(lp4395
I18
a(iobjs
Vector
p4396
(dp4397
g6
I0
sg7
I0
sbaa(lp4398
I20
a(iobjs
Vector
p4399
(dp4400
g6
I0
sg7
I0
sbaa(lp4401
F25.600000000000001
a(iobjs
Vector
p4402
(dp4403
g6
I0
sg7
I0
sbaa(lp4404
F31.100000000000001
a(lp4405
F0.0
aF0.0
aaa(lp4406
F36.100000000000001
a(iobjs
Vector
p4407
(dp4408
g6
I0
sg7
I0
sbaa(lp4409
I39
a(iobjs
Vector
p4410
(dp4411
g6
I0
sg7
I0
sbaa(lp4412
I43
a(iobjs
Vector
p4413
(dp4414
g6
I0
sg7
I0
sbaa(lp4415
I50
a(iobjs
Vector
p4416
(dp4417
g6
I0
sg7
I0
sbaa(lp4418
I54
a(iobjs
Vector
p4419
(dp4420
g6
I0
sg7
I0
sbaa(lp4421
I61
a(lp4422
F0.0
aF0.0
aaa(lp4423
F67.699999999999989
a(iobjs
Vector
p4424
(dp4425
g6
I0
sg7
I0
sbaa(lp4426
F71.099999999999994
a(iobjs
Vector
p4427
(dp4428
g6
I0
sg7
I0
sbaa(lp4429
I74
a(iobjs
Vector
p4430
(dp4431
g6
I0
sg7
I0
sbaa(lp4432
I81
a(iobjs
Vector
p4433
(dp4434
g6
I0
sg7
I0
sbaa(lp4435
I90
a(iobjs
Vector
p4436
(dp4437
g6
I0
sg7
I0
sbaa(lp4438
I93
a(iobjs
Vector
p4439
(dp4440
g6
I0
sg7
I0
sbaa(lp4441
I100
a(iobjs
Vector
p4442
(dp4443
g6
I0
sg7
I0
sbaa(lp4444
I102
a(iobjs
Vector
p4445
(dp4446
g6
I0
sg7
I0
sbaa(lp4447
I104
a(iobjs
Vector
p4448
(dp4449
g6
I0
sg7
I0
sbaa(lp4450
I106
a(iobjs
Vector
p4451
(dp4452
g6
I0
sg7
I0
sbaa(lp4453
I108
a(iobjs
Vector
p4454
(dp4455
g6
I0
sg7
I0
sbaa(lp4456
I111
a(iobjs
Vector
p4457
(dp4458
g6
I0
sg7
I0
sbaa(lp4459
I113
a(iobjs
Vector
p4460
(dp4461
g6
I0
sg7
I0
sbaa(lp4462
I115
a(iobjs
Vector
p4463
(dp4464
g6
I0
sg7
I0
sbaa(lp4465
I117
a(iobjs
Vector
p4466
(dp4467
g6
I0
sg7
I0
sbaa(lp4468
I119
a(iobjs
Vector
p4469
(dp4470
g6
I0
sg7
I0
sbaa(lp4471
I121
a(iobjs
Vector
p4472
(dp4473
g6
I0
sg7
I0
sbaa(lp4474
I123
a(iobjs
Vector
p4475
(dp4476
g6
I0
sg7
I0
sbaa(lp4477
I125
a(iobjs
Vector
p4478
(dp4479
g6
I0
sg7
I0
sbaa(lp4480
I127
a(iobjs
Vector
p4481
(dp4482
g6
I0
sg7
I0
sbaa(lp4483
I130
a(iobjs
Vector
p4484
(dp4485
g6
I0
sg7
I0
sbaa(lp4486
I132
a(iobjs
Vector
p4487
(dp4488
g6
I0
sg7
I0
sbaa(lp4489
I138
a(iobjs
Vector
p4490
(dp4491
g6
I0
sg7
I0
sbaa(lp4492
I141
a(lp4493
F0.0
aF0.0
aaa(lp4494
I150
a(iobjs
Vector
p4495
(dp4496
g6
I0
sg7
I0
sbaa(lp4497
I154
a(iobjs
Vector
p4498
(dp4499
g6
I0
sg7
I0
sbaa(lp4500
I157
a(iobjs
Vector
p4501
(dp4502
g6
I0
sg7
I0
sbaa(lp4503
I161
a(iobjs
Vector
p4504
(dp4505
g6
I0
sg7
I0
sbaasg13
I199
sg14
g4504
sg17
g18
sbsg45
(iobjs
KeyFrame
p4506
(dp4507
g11
(lp4508
(lp4509
I1
aI7
aa(lp4510
I10
aI7
aa(lp4511
I18
aI7
aa(lp4512
I20
aI7
aa(lp4513
F25.600000000000001
aI7
aa(lp4514
F31.100000000000001
aF7.0
aa(lp4515
F36.100000000000001
aI7
aa(lp4516
I39
aI7
aa(lp4517
I43
aI7
aa(lp4518
I50
aI7
aa(lp4519
I54
aI7
aa(lp4520
I61
aF7.0
aa(lp4521
F67.699999999999989
aI7
aa(lp4522
F71.099999999999994
aI7
aa(lp4523
I74
aI7
aa(lp4524
I81
aI7
aa(lp4525
I90
aI7
aa(lp4526
I93
aI7
aa(lp4527
I100
aI7
aa(lp4528
I102
aI7
aa(lp4529
I104
aI7
aa(lp4530
I106
aI7
aa(lp4531
I108
aI7
aa(lp4532
I111
aI7
aa(lp4533
I113
aI7
aa(lp4534
I115
aI7
aa(lp4535
I117
aI7
aa(lp4536
I119
aI7
aa(lp4537
I121
aI7
aa(lp4538
I123
aI7
aa(lp4539
I125
aI7
aa(lp4540
I127
aI7
aa(lp4541
I130
aI7
aa(lp4542
I132
aI7
aa(lp4543
I138
aI7
aa(lp4544
I141
aF7.0
aa(lp4545
I150
aI7
aa(lp4546
I154
aI7
aa(lp4547
I157
aI7
aa(lp4548
I161
aI7
aasg13
I199
sg14
I7
sg17
g18
sbsg49
(iobjs
Texture
p4549
(dp4550
g13
I199
sg52
(dp4551
g63
(iobjs
KeyFrame
p4552
(dp4553
g11
(lp4554
(lp4555
I1
ag67
aa(lp4556
I10
ag67
aa(lp4557
I18
ag67
aa(lp4558
I20
ag67
aa(lp4559
I28
ag67
aa(lp4560
I35
ag67
aa(lp4561
I39
ag67
aa(lp4562
I40
ag67
aa(lp4563
I43
ag67
aa(lp4564
I50
ag67
aa(lp4565
I54
ag67
aa(lp4566
I61
ag67
aa(lp4567
I65
ag67
aa(lp4568
I74
ag67
aa(lp4569
I75
ag67
aa(lp4570
I81
ag67
aa(lp4571
I90
ag67
aa(lp4572
I93
ag67
aa(lp4573
I100
ag67
aa(lp4574
I102
ag67
aa(lp4575
I104
ag67
aa(lp4576
I106
ag67
aa(lp4577
I108
ag67
aa(lp4578
I111
ag67
aa(lp4579
I113
ag67
aa(lp4580
I115
ag67
aa(lp4581
I117
ag67
aa(lp4582
I119
ag67
aa(lp4583
I121
ag67
aa(lp4584
I123
ag67
aa(lp4585
I125
ag67
aa(lp4586
I127
ag67
aa(lp4587
I130
ag67
aa(lp4588
I132
ag67
aa(lp4589
I138
ag67
aa(lp4590
I141
ag67
aa(lp4591
I150
ag67
aa(lp4592
I154
ag67
aa(lp4593
I157
ag67
aa(lp4594
I161
ag67
aasg13
I199
sg14
g67
sg17
g30
sbsg72
(iobjs
KeyFrame
p4595
(dp4596
g11
(lp4597
(lp4598
I1
aI01
aa(lp4599
I10
aI01
aa(lp4600
I18
aI01
aa(lp4601
I20
aI01
aa(lp4602
I28
aI01
aa(lp4603
I35
aI01
aa(lp4604
I39
aI01
aa(lp4605
I40
aI01
aa(lp4606
I43
aI01
aa(lp4607
I50
aI01
aa(lp4608
I54
aI01
aa(lp4609
I61
aI01
aa(lp4610
I65
aI01
aa(lp4611
I74
aI01
aa(lp4612
I75
aI01
aa(lp4613
I81
aI01
aa(lp4614
I90
aI01
aa(lp4615
I93
aI01
aa(lp4616
I100
aI01
aa(lp4617
I102
aI01
aa(lp4618
I104
aI01
aa(lp4619
I106
aI01
aa(lp4620
I108
aI01
aa(lp4621
I111
aI01
aa(lp4622
I113
aI01
aa(lp4623
I115
aI01
aa(lp4624
I117
aI01
aa(lp4625
I119
aI01
aa(lp4626
I121
aI01
aa(lp4627
I123
aI01
aa(lp4628
I125
aI01
aa(lp4629
I127
aI01
aa(lp4630
I130
aI01
aa(lp4631
I132
aI01
aa(lp4632
I138
aI01
aa(lp4633
I141
aI01
aa(lp4634
I150
aI01
aa(lp4635
I154
aI01
aa(lp4636
I157
aI01
aa(lp4637
I161
aI01
aasg13
I199
sg14
I01
sg17
g30
sbsg76
(iobjs
KeyFrame
p4638
(dp4639
g11
(lp4640
(lp4641
I1
aI01
aa(lp4642
I10
aI01
aa(lp4643
I18
aI01
aa(lp4644
I20
aI01
aa(lp4645
I28
aI01
aa(lp4646
I35
aI01
aa(lp4647
I39
aI01
aa(lp4648
I40
aI01
aa(lp4649
I43
aI01
aa(lp4650
I50
aI01
aa(lp4651
I54
aI01
aa(lp4652
I61
aI01
aa(lp4653
I65
aI01
aa(lp4654
I74
aI01
aa(lp4655
I75
aI01
aa(lp4656
I81
aI01
aa(lp4657
I90
aI01
aa(lp4658
I93
aI01
aa(lp4659
I100
aI01
aa(lp4660
I102
aI01
aa(lp4661
I104
aI01
aa(lp4662
I106
aI01
aa(lp4663
I108
aI01
aa(lp4664
I111
aI01
aa(lp4665
I113
aI01
aa(lp4666
I115
aI01
aa(lp4667
I117
aI01
aa(lp4668
I119
aI01
aa(lp4669
I121
aI01
aa(lp4670
I123
aI01
aa(lp4671
I125
aI01
aa(lp4672
I127
aI01
aa(lp4673
I130
aI01
aa(lp4674
I132
aI01
aa(lp4675
I138
aI01
aa(lp4676
I141
aI01
aa(lp4677
I150
aI01
aa(lp4678
I154
aI01
aa(lp4679
I157
aI01
aa(lp4680
I161
aI01
aasg13
I199
sg14
I01
sg17
g30
sbsg49
(iobjs
KeyFrame
p4681
(dp4682
g11
(lp4683
(lp4684
I1
ag57
aa(lp4685
I10
ag57
aa(lp4686
I18
ag57
aa(lp4687
I20
ag57
aa(lp4688
I28
ag57
aa(lp4689
I35
ag57
aa(lp4690
I39
ag57
aa(lp4691
I40
ag57
aa(lp4692
I43
ag57
aa(lp4693
I50
ag57
aa(lp4694
I54
ag57
aa(lp4695
I61
ag57
aa(lp4696
I65
ag57
aa(lp4697
I74
ag57
aa(lp4698
I75
ag57
aa(lp4699
I81
ag57
aa(lp4700
I90
ag57
aa(lp4701
I93
ag57
aa(lp4702
I100
ag57
aa(lp4703
I102
ag57
aa(lp4704
I104
ag57
aa(lp4705
I106
ag57
aa(lp4706
I108
ag57
aa(lp4707
I111
ag57
aa(lp4708
I113
ag57
aa(lp4709
I115
ag57
aa(lp4710
I117
ag57
aa(lp4711
I119
ag57
aa(lp4712
I121
ag57
aa(lp4713
I123
ag57
aa(lp4714
I125
ag57
aa(lp4715
I127
ag57
aa(lp4716
I130
ag57
aa(lp4717
I132
ag57
aa(lp4718
I138
ag57
aa(lp4719
I141
ag57
aa(lp4720
I150
ag57
aa(lp4721
I154
ag57
aa(lp4722
I157
ag57
aa(lp4723
I161
ag57
aasg13
I199
sg14
g57
sg17
g30
sbsg58
(iobjs
KeyFrame
p4724
(dp4725
g11
(lp4726
(lp4727
I1
ag62
aa(lp4728
I10
ag62
aa(lp4729
I18
ag62
aa(lp4730
I20
ag62
aa(lp4731
I28
ag62
aa(lp4732
I35
ag62
aa(lp4733
I39
ag62
aa(lp4734
I40
ag62
aa(lp4735
I43
ag62
aa(lp4736
I50
ag62
aa(lp4737
I54
ag62
aa(lp4738
I61
ag62
aa(lp4739
I65
ag62
aa(lp4740
I74
ag62
aa(lp4741
I75
ag62
aa(lp4742
I81
ag62
aa(lp4743
I90
ag62
aa(lp4744
I93
ag62
aa(lp4745
I100
ag62
aa(lp4746
I102
ag62
aa(lp4747
I104
ag62
aa(lp4748
I106
ag62
aa(lp4749
I108
ag62
aa(lp4750
I111
ag62
aa(lp4751
I113
ag62
aa(lp4752
I115
ag62
aa(lp4753
I117
ag62
aa(lp4754
I119
ag62
aa(lp4755
I121
ag62
aa(lp4756
I123
ag62
aa(lp4757
I125
ag62
aa(lp4758
I127
ag62
aa(lp4759
I130
ag62
aa(lp4760
I132
ag62
aa(lp4761
I138
ag62
aa(lp4762
I141
ag62
aa(lp4763
I150
ag62
aa(lp4764
I154
ag62
aa(lp4765
I157
ag62
aa(lp4766
I161
ag62
aasg13
I199
sg14
g62
sg17
g30
sbsg68
(iobjs
KeyFrame
p4767
(dp4768
g11
(lp4769
(lp4770
I1
aI00
aa(lp4771
I10
aI00
aa(lp4772
I18
aI00
aa(lp4773
I20
aI00
aa(lp4774
I28
aI00
aa(lp4775
I35
aI00
aa(lp4776
I39
aI00
aa(lp4777
I40
aI00
aa(lp4778
I43
aI00
aa(lp4779
I50
aI00
aa(lp4780
I54
aI00
aa(lp4781
I61
aI00
aa(lp4782
I65
aI00
aa(lp4783
I74
aI00
aa(lp4784
I75
aI00
aa(lp4785
I81
aI00
aa(lp4786
I90
aI00
aa(lp4787
I93
aI00
aa(lp4788
I100
aI00
aa(lp4789
I102
aI00
aa(lp4790
I104
aI00
aa(lp4791
I106
aI00
aa(lp4792
I108
aI00
aa(lp4793
I111
aI00
aa(lp4794
I113
aI00
aa(lp4795
I115
aI00
aa(lp4796
I117
aI00
aa(lp4797
I119
aI00
aa(lp4798
I121
aI00
aa(lp4799
I123
aI00
aa(lp4800
I125
aI00
aa(lp4801
I127
aI00
aa(lp4802
I130
aI00
aa(lp4803
I132
aI00
aa(lp4804
I138
aI00
aa(lp4805
I141
aI00
aa(lp4806
I150
aI00
aa(lp4807
I154
aI00
aa(lp4808
I157
aI00
aa(lp4809
I161
aI00
aasg13
I199
sg14
I00
sg17
g30
sbssg80
(dp4810
g63
g82
sg68
g83
sg72
g84
sg58
g85
sg76
g86
ssbsg87
(iobjs
KeyFrame
p4811
(dp4812
g11
(lp4813
(lp4814
I1
aI225
aa(lp4815
I10
aI225
aa(lp4816
I18
aF202.68044969239031
aa(lp4817
I20
aF205.84899009286846
aa(lp4818
F25.600000000000001
aF192.89645638766109
aa(lp4819
F31.100000000000001
aF163.81724146270869
aa(lp4820
F36.100000000000001
aF143.04637365917125
aa(lp4821
I39
aF157.90379557643013
aa(lp4822
I43
aF147.36082796489967
aa(lp4823
I50
aF180.67016913834721
aa(lp4824
I54
aF211.00456345538839
aa(lp4825
I61
aF201.30313516108811
aa(lp4826
F67.699999999999989
aF192.01748236511497
aa(lp4827
F71.099999999999994
aF207.91067286266275
aa(lp4828
I74
aF193.49346990300819
aa(lp4829
I81
aF198.26935606205723
aa(lp4830
I90
aF205.34912447231005
aa(lp4831
I93
aF232.55748278781937
aa(lp4832
I100
aF377.49302347286095
aa(lp4833
I102
aF371.19309248440317
aa(lp4834
I104
aF376.7476229025537
aa(lp4835
I106
aF394.70127389862239
aa(lp4836
I108
aF419.87000756652719
aa(lp4837
I111
aF419.87000756652719
aa(lp4838
I113
aF419.87000756652719
aa(lp4839
I115
aF401.24317301366892
aa(lp4840
I117
aF369.20856611863582
aa(lp4841
I119
aF354.62080041210288
aa(lp4842
I121
aF349.43992429098648
aa(lp4843
I123
aF341.24247656194359
aa(lp4844
I125
aF341.24247656194359
aa(lp4845
I127
aF335.56824905089405
aa(lp4846
I130
aF343.59102273010592
aa(lp4847
I132
aF340.5224990156928
aa(lp4848
I138
aF340.5224990156928
aa(lp4849
I141
aF342.50160997312372
aa(lp4850
I150
aF226.49642825527312
aa(lp4851
I154
aF221.61021835282259
aa(lp4852
I157
aF224.17008722536497
aa(lp4853
I161
aF225.0
aasg13
I199
sg14
F225.0
sg17
g18
sbsg91
(iobjs
KeyFrame
p4854
(dp4855
g11
(lp4856
(lp4857
I1
aI00
aa(lp4858
I10
aI00
aa(lp4859
I18
aI00
aa(lp4860
I20
aI00
aa(lp4861
F25.600000000000001
aI00
aa(lp4862
F31.100000000000001
aI00
aa(lp4863
F36.100000000000001
aI00
aa(lp4864
I39
aI00
aa(lp4865
I43
aI00
aa(lp4866
I50
aI00
aa(lp4867
I54
aI00
aa(lp4868
I61
aI00
aa(lp4869
F67.699999999999989
aI00
aa(lp4870
F71.099999999999994
aI00
aa(lp4871
I74
aI00
aa(lp4872
I81
aI00
aa(lp4873
I90
aI00
aa(lp4874
I93
aI00
aa(lp4875
I100
aI00
aa(lp4876
I102
aI00
aa(lp4877
I104
aI00
aa(lp4878
I106
aI00
aa(lp4879
I108
aI00
aa(lp4880
I111
aI00
aa(lp4881
I113
aI00
aa(lp4882
I115
aI00
aa(lp4883
I117
aI00
aa(lp4884
I119
aI00
aa(lp4885
I121
aI00
aa(lp4886
I123
aI00
aa(lp4887
I125
aI00
aa(lp4888
I127
aI00
aa(lp4889
I130
aI00
aa(lp4890
I132
aI00
aa(lp4891
I138
aI00
aa(lp4892
I141
aI00
aa(lp4893
I150
aI00
aa(lp4894
I154
aI00
aa(lp4895
I157
aI00
aa(lp4896
I161
aI00
aasg13
I199
sg14
I00
sg17
g30
sbsg95
(iobjs
KeyFrame
p4897
(dp4898
g11
(lp4899
(lp4900
I1
aI00
aa(lp4901
I10
aI00
aa(lp4902
I18
aI00
aa(lp4903
I20
aI00
aa(lp4904
F25.600000000000001
aI00
aa(lp4905
F31.100000000000001
aI00
aa(lp4906
F36.100000000000001
aI00
aa(lp4907
I39
aI00
aa(lp4908
I43
aI00
aa(lp4909
I50
aI00
aa(lp4910
I54
aI00
aa(lp4911
I61
aI00
aa(lp4912
F67.699999999999989
aI00
aa(lp4913
F71.099999999999994
aI00
aa(lp4914
I74
aI00
aa(lp4915
I81
aI00
aa(lp4916
I90
aI00
aa(lp4917
I93
aI00
aa(lp4918
I100
aI00
aa(lp4919
I102
aI00
aa(lp4920
I104
aI00
aa(lp4921
I106
aI00
aa(lp4922
I108
aI00
aa(lp4923
I111
aI00
aa(lp4924
I113
aI00
aa(lp4925
I115
aI00
aa(lp4926
I117
aI00
aa(lp4927
I119
aI00
aa(lp4928
I121
aI00
aa(lp4929
I123
aI00
aa(lp4930
I125
aI00
aa(lp4931
I127
aI00
aa(lp4932
I130
aI00
aa(lp4933
I132
aI00
aa(lp4934
I138
aI00
aa(lp4935
I141
aI00
aa(lp4936
I150
aI00
aa(lp4937
I154
aI00
aa(lp4938
I157
aI00
aa(lp4939
I161
aI00
aasg13
I199
sg14
I00
sg17
g30
sbsg99
(lp4940
(dp4941
g26
(iobjs
KeyFrame
p4942
(dp4943
g11
(lp4944
(lp4945
I1
aI00
aa(lp4946
I10
aI00
aa(lp4947
I18
aI00
aa(lp4948
I20
aI00
aa(lp4949
F25.600000000000001
aI00
aa(lp4950
F31.100000000000001
aI00
aa(lp4951
F36.100000000000001
aI00
aa(lp4952
I39
aI00
aa(lp4953
I43
aI00
aa(lp4954
I50
aI00
aa(lp4955
I54
aI00
aa(lp4956
I61
aI00
aa(lp4957
F67.699999999999989
aI00
aa(lp4958
F71.099999999999994
aI00
aa(lp4959
I74
aI00
aa(lp4960
I81
aI00
aa(lp4961
I90
aI00
aa(lp4962
I93
aI00
aa(lp4963
I100
aI00
aa(lp4964
I102
aI00
aa(lp4965
I104
aI00
aa(lp4966
I106
aI00
aa(lp4967
I108
aI00
aa(lp4968
I111
aI00
aa(lp4969
I113
aI00
aa(lp4970
I115
aI00
aa(lp4971
I117
aI00
aa(lp4972
I119
aI00
aa(lp4973
I121
aI00
aa(lp4974
I123
aI00
aa(lp4975
I125
aI00
aa(lp4976
I127
aI00
aa(lp4977
I130
aI00
aa(lp4978
I132
aI00
aa(lp4979
I138
aI00
aa(lp4980
I141
aI00
aa(lp4981
I150
aI00
aa(lp4982
I154
aI00
aa(lp4983
I157
aI00
aa(lp4984
I161
aI00
aasg13
I199
sg14
I00
sg17
g30
sbsg31
(iobjs
KeyFrame
p4985
(dp4986
g11
(lp4987
(lp4988
I1
aI40
aa(lp4989
I10
aI40
aa(lp4990
I18
aI40
aa(lp4991
I20
aI40
aa(lp4992
F25.600000000000001
aI40
aa(lp4993
F31.100000000000001
aF40.0
aa(lp4994
F36.100000000000001
aI40
aa(lp4995
I39
aI40
aa(lp4996
I43
aI40
aa(lp4997
I50
aI40
aa(lp4998
I54
aI40
aa(lp4999
I61
aF40.0
aa(lp5000
F67.699999999999989
aI40
aa(lp5001
F71.099999999999994
aI40
aa(lp5002
I74
aI40
aa(lp5003
I81
aI40
aa(lp5004
I90
aI40
aa(lp5005
I93
aI40
aa(lp5006
I100
aI40
aa(lp5007
I102
aI40
aa(lp5008
I104
aI40
aa(lp5009
I106
aI40
aa(lp5010
I108
aI40
aa(lp5011
I111
aI40
aa(lp5012
I113
aI40
aa(lp5013
I115
aI40
aa(lp5014
I117
aI40
aa(lp5015
I119
aI40
aa(lp5016
I121
aI40
aa(lp5017
I123
aI40
aa(lp5018
I125
aI40
aa(lp5019
I127
aI40
aa(lp5020
I130
aI40
aa(lp5021
I132
aI40
aa(lp5022
I138
aI40
aa(lp5023
I141
aF40.0
aa(lp5024
I150
aI40
aa(lp5025
I154
aI40
aa(lp5026
I157
aI40
aa(lp5027
I161
aI40
aasg13
I199
sg14
I40
sg17
g18
sbsg35
(iobjs
KeyFrame
p5028
(dp5029
g11
(lp5030
(lp5031
I1
a(lp5032
I0
aI0
aI0
aaa(lp5033
I10
a(lp5034
I0
aI0
aI0
aaa(lp5035
I18
a(lp5036
I0
aI0
aI0
aaa(lp5037
I20
a(lp5038
I0
aI0
aI0
aaa(lp5039
F25.600000000000001
a(lp5040
I0
aI0
aI0
aaa(lp5041
F31.100000000000001
a(lp5042
F0.0
aF0.0
aF0.0
aaa(lp5043
F36.100000000000001
a(lp5044
I0
aI0
aI0
aaa(lp5045
I39
a(lp5046
I0
aI0
aI0
aaa(lp5047
I43
a(lp5048
I0
aI0
aI0
aaa(lp5049
I50
a(lp5050
I0
aI0
aI0
aaa(lp5051
I54
a(lp5052
I0
aI0
aI0
aaa(lp5053
I61
a(lp5054
F0.0
aF0.0
aF0.0
aaa(lp5055
F67.699999999999989
a(lp5056
I0
aI0
aI0
aaa(lp5057
F71.099999999999994
a(lp5058
I0
aI0
aI0
aaa(lp5059
I74
a(lp5060
I0
aI0
aI0
aaa(lp5061
I81
a(lp5062
I0
aI0
aI0
aaa(lp5063
I90
a(lp5064
I0
aI0
aI0
aaa(lp5065
I93
a(lp5066
I0
aI0
aI0
aaa(lp5067
I100
a(lp5068
I0
aI0
aI0
aaa(lp5069
I102
a(lp5070
I0
aI0
aI0
aaa(lp5071
I104
a(lp5072
I0
aI0
aI0
aaa(lp5073
I106
a(lp5074
I0
aI0
aI0
aaa(lp5075
I108
a(lp5076
I0
aI0
aI0
aaa(lp5077
I111
a(lp5078
I0
aI0
aI0
aaa(lp5079
I113
a(lp5080
I0
aI0
aI0
aaa(lp5081
I115
a(lp5082
I0
aI0
aI0
aaa(lp5083
I117
a(lp5084
I0
aI0
aI0
aaa(lp5085
I119
a(lp5086
I0
aI0
aI0
aaa(lp5087
I121
a(lp5088
I0
aI0
aI0
aaa(lp5089
I123
a(lp5090
I0
aI0
aI0
aaa(lp5091
I125
a(lp5092
I0
aI0
aI0
aaa(lp5093
I127
a(lp5094
I0
aI0
aI0
aaa(lp5095
I130
a(lp5096
I0
aI0
aI0
aaa(lp5097
I132
a(lp5098
I0
aI0
aI0
aaa(lp5099
I138
a(lp5100
I0
aI0
aI0
aaa(lp5101
I141
a(lp5102
F0.0
aF0.0
aF0.0
aaa(lp5103
I150
a(lp5104
I0
aI0
aI0
aaa(lp5105
I154
a(lp5106
I0
aI0
aI0
aaa(lp5107
I157
a(lp5108
I0
aI0
aI0
aaa(lp5109
I161
a(lp5110
I0
aI0
aI0
aaasg13
I199
sg14
g5110
sg17
g18
sbsg8
(iobjs
KeyFrame
p5111
(dp5112
g11
(lp5113
(lp5114
I1
a(iobjs
Vector
p5115
(dp5116
g6
I0
sg7
I0
sbaa(lp5117
I10
a(iobjs
Vector
p5118
(dp5119
g6
I0
sg7
I0
sbaa(lp5120
I18
a(iobjs
Vector
p5121
(dp5122
g6
I0
sg7
I0
sbaa(lp5123
I20
a(iobjs
Vector
p5124
(dp5125
g6
I0
sg7
I0
sbaa(lp5126
F25.600000000000001
a(iobjs
Vector
p5127
(dp5128
g6
I0
sg7
I0
sbaa(lp5129
F31.100000000000001
a(lp5130
F0.0
aF0.0
aaa(lp5131
F36.100000000000001
a(iobjs
Vector
p5132
(dp5133
g6
I0
sg7
I0
sbaa(lp5134
I39
a(iobjs
Vector
p5135
(dp5136
g6
I0
sg7
I0
sbaa(lp5137
I43
a(iobjs
Vector
p5138
(dp5139
g6
I0
sg7
I0
sbaa(lp5140
I50
a(iobjs
Vector
p5141
(dp5142
g6
I0
sg7
I0
sbaa(lp5143
I54
a(iobjs
Vector
p5144
(dp5145
g6
I0
sg7
I0
sbaa(lp5146
I61
a(lp5147
F0.0
aF0.0
aaa(lp5148
F67.699999999999989
a(iobjs
Vector
p5149
(dp5150
g6
I0
sg7
I0
sbaa(lp5151
F71.099999999999994
a(iobjs
Vector
p5152
(dp5153
g6
I0
sg7
I0
sbaa(lp5154
I74
a(iobjs
Vector
p5155
(dp5156
g6
I0
sg7
I0
sbaa(lp5157
I81
a(iobjs
Vector
p5158
(dp5159
g6
I0
sg7
I0
sbaa(lp5160
I90
a(iobjs
Vector
p5161
(dp5162
g6
I0
sg7
I0
sbaa(lp5163
I93
a(iobjs
Vector
p5164
(dp5165
g6
I0
sg7
I0
sbaa(lp5166
I100
a(iobjs
Vector
p5167
(dp5168
g6
I0
sg7
I0
sbaa(lp5169
I102
a(iobjs
Vector
p5170
(dp5171
g6
I0
sg7
I0
sbaa(lp5172
I104
a(iobjs
Vector
p5173
(dp5174
g6
I0
sg7
I0
sbaa(lp5175
I106
a(iobjs
Vector
p5176
(dp5177
g6
I0
sg7
I0
sbaa(lp5178
I108
a(iobjs
Vector
p5179
(dp5180
g6
I0
sg7
I0
sbaa(lp5181
I111
a(iobjs
Vector
p5182
(dp5183
g6
I0
sg7
I0
sbaa(lp5184
I113
a(iobjs
Vector
p5185
(dp5186
g6
I0
sg7
I0
sbaa(lp5187
I115
a(iobjs
Vector
p5188
(dp5189
g6
I0
sg7
I0
sbaa(lp5190
I117
a(iobjs
Vector
p5191
(dp5192
g6
I0
sg7
I0
sbaa(lp5193
I119
a(iobjs
Vector
p5194
(dp5195
g6
I0
sg7
I0
sbaa(lp5196
I121
a(iobjs
Vector
p5197
(dp5198
g6
I0
sg7
I0
sbaa(lp5199
I123
a(iobjs
Vector
p5200
(dp5201
g6
I0
sg7
I0
sbaa(lp5202
I125
a(iobjs
Vector
p5203
(dp5204
g6
I0
sg7
I0
sbaa(lp5205
I127
a(iobjs
Vector
p5206
(dp5207
g6
I0
sg7
I0
sbaa(lp5208
I130
a(iobjs
Vector
p5209
(dp5210
g6
I0
sg7
I0
sbaa(lp5211
I132
a(iobjs
Vector
p5212
(dp5213
g6
I0
sg7
I0
sbaa(lp5214
I138
a(iobjs
Vector
p5215
(dp5216
g6
I0
sg7
I0
sbaa(lp5217
I141
a(lp5218
F0.0
aF0.0
aaa(lp5219
I150
a(iobjs
Vector
p5220
(dp5221
g6
I0
sg7
I0
sbaa(lp5222
I154
a(iobjs
Vector
p5223
(dp5224
g6
I0
sg7
I0
sbaa(lp5225
I157
a(iobjs
Vector
p5226
(dp5227
g6
I0
sg7
I0
sbaa(lp5228
I161
a(iobjs
Vector
p5229
(dp5230
g6
I0
sg7
I0
sbaasg13
I199
sg14
g5229
sg17
g18
sbsg45
(iobjs
KeyFrame
p5231
(dp5232
g11
(lp5233
(lp5234
I1
aI7
aa(lp5235
I10
aI7
aa(lp5236
I18
aI7
aa(lp5237
I20
aI7
aa(lp5238
F25.600000000000001
aI7
aa(lp5239
F31.100000000000001
aF7.0
aa(lp5240
F36.100000000000001
aI7
aa(lp5241
I39
aI7
aa(lp5242
I43
aI7
aa(lp5243
I50
aI7
aa(lp5244
I54
aI7
aa(lp5245
I61
aF7.0
aa(lp5246
F67.699999999999989
aI7
aa(lp5247
F71.099999999999994
aI7
aa(lp5248
I74
aI7
aa(lp5249
I81
aI7
aa(lp5250
I90
aI7
aa(lp5251
I93
aI7
aa(lp5252
I100
aI7
aa(lp5253
I102
aI7
aa(lp5254
I104
aI7
aa(lp5255
I106
aI7
aa(lp5256
I108
aI7
aa(lp5257
I111
aI7
aa(lp5258
I113
aI7
aa(lp5259
I115
aI7
aa(lp5260
I117
aI7
aa(lp5261
I119
aI7
aa(lp5262
I121
aI7
aa(lp5263
I123
aI7
aa(lp5264
I125
aI7
aa(lp5265
I127
aI7
aa(lp5266
I130
aI7
aa(lp5267
I132
aI7
aa(lp5268
I138
aI7
aa(lp5269
I141
aF7.0
aa(lp5270
I150
aI7
aa(lp5271
I154
aI7
aa(lp5272
I157
aI7
aa(lp5273
I161
aI7
aasg13
I199
sg14
I7
sg17
g18
sbsg49
(iobjs
Texture
p5274
(dp5275
g13
I199
sg52
(dp5276
g63
(iobjs
KeyFrame
p5277
(dp5278
g11
(lp5279
(lp5280
I1
ag67
aa(lp5281
I10
ag67
aa(lp5282
I18
ag67
aa(lp5283
I20
ag67
aa(lp5284
I28
ag67
aa(lp5285
I35
ag67
aa(lp5286
I39
ag67
aa(lp5287
I40
ag67
aa(lp5288
I43
ag67
aa(lp5289
I50
ag67
aa(lp5290
I54
ag67
aa(lp5291
I61
ag67
aa(lp5292
I65
ag67
aa(lp5293
I74
ag67
aa(lp5294
I75
ag67
aa(lp5295
I81
ag67
aa(lp5296
I90
ag67
aa(lp5297
I93
ag67
aa(lp5298
I100
ag67
aa(lp5299
I102
ag67
aa(lp5300
I104
ag67
aa(lp5301
I106
ag67
aa(lp5302
I108
ag67
aa(lp5303
I111
ag67
aa(lp5304
I113
ag67
aa(lp5305
I115
ag67
aa(lp5306
I117
ag67
aa(lp5307
I119
ag67
aa(lp5308
I121
ag67
aa(lp5309
I123
ag67
aa(lp5310
I125
ag67
aa(lp5311
I127
ag67
aa(lp5312
I130
ag67
aa(lp5313
I132
ag67
aa(lp5314
I138
ag67
aa(lp5315
I141
ag67
aa(lp5316
I150
ag67
aa(lp5317
I154
ag67
aa(lp5318
I157
ag67
aa(lp5319
I161
ag67
aasg13
I199
sg14
g67
sg17
g30
sbsg72
(iobjs
KeyFrame
p5320
(dp5321
g11
(lp5322
(lp5323
I1
aI01
aa(lp5324
I10
aI01
aa(lp5325
I18
aI01
aa(lp5326
I20
aI01
aa(lp5327
I28
aI01
aa(lp5328
I35
aI01
aa(lp5329
I39
aI01
aa(lp5330
I40
aI01
aa(lp5331
I43
aI01
aa(lp5332
I50
aI01
aa(lp5333
I54
aI01
aa(lp5334
I61
aI01
aa(lp5335
I65
aI01
aa(lp5336
I74
aI01
aa(lp5337
I75
aI01
aa(lp5338
I81
aI01
aa(lp5339
I90
aI01
aa(lp5340
I93
aI01
aa(lp5341
I100
aI01
aa(lp5342
I102
aI01
aa(lp5343
I104
aI01
aa(lp5344
I106
aI01
aa(lp5345
I108
aI01
aa(lp5346
I111
aI01
aa(lp5347
I113
aI01
aa(lp5348
I115
aI01
aa(lp5349
I117
aI01
aa(lp5350
I119
aI01
aa(lp5351
I121
aI01
aa(lp5352
I123
aI01
aa(lp5353
I125
aI01
aa(lp5354
I127
aI01
aa(lp5355
I130
aI01
aa(lp5356
I132
aI01
aa(lp5357
I138
aI01
aa(lp5358
I141
aI01
aa(lp5359
I150
aI01
aa(lp5360
I154
aI01
aa(lp5361
I157
aI01
aa(lp5362
I161
aI01
aasg13
I199
sg14
I01
sg17
g30
sbsg76
(iobjs
KeyFrame
p5363
(dp5364
g11
(lp5365
(lp5366
I1
aI01
aa(lp5367
I10
aI01
aa(lp5368
I18
aI01
aa(lp5369
I20
aI01
aa(lp5370
I28
aI01
aa(lp5371
I35
aI01
aa(lp5372
I39
aI01
aa(lp5373
I40
aI01
aa(lp5374
I43
aI01
aa(lp5375
I50
aI01
aa(lp5376
I54
aI01
aa(lp5377
I61
aI01
aa(lp5378
I65
aI01
aa(lp5379
I74
aI01
aa(lp5380
I75
aI01
aa(lp5381
I81
aI01
aa(lp5382
I90
aI01
aa(lp5383
I93
aI01
aa(lp5384
I100
aI01
aa(lp5385
I102
aI01
aa(lp5386
I104
aI01
aa(lp5387
I106
aI01
aa(lp5388
I108
aI01
aa(lp5389
I111
aI01
aa(lp5390
I113
aI01
aa(lp5391
I115
aI01
aa(lp5392
I117
aI01
aa(lp5393
I119
aI01
aa(lp5394
I121
aI01
aa(lp5395
I123
aI01
aa(lp5396
I125
aI01
aa(lp5397
I127
aI01
aa(lp5398
I130
aI01
aa(lp5399
I132
aI01
aa(lp5400
I138
aI01
aa(lp5401
I141
aI01
aa(lp5402
I150
aI01
aa(lp5403
I154
aI01
aa(lp5404
I157
aI01
aa(lp5405
I161
aI01
aasg13
I199
sg14
I01
sg17
g30
sbsg49
(iobjs
KeyFrame
p5406
(dp5407
g11
(lp5408
(lp5409
I1
ag57
aa(lp5410
I10
ag57
aa(lp5411
I18
ag57
aa(lp5412
I20
ag57
aa(lp5413
I28
ag57
aa(lp5414
I35
ag57
aa(lp5415
I39
ag57
aa(lp5416
I40
ag57
aa(lp5417
I43
ag57
aa(lp5418
I50
ag57
aa(lp5419
I54
ag57
aa(lp5420
I61
ag57
aa(lp5421
I65
ag57
aa(lp5422
I74
ag57
aa(lp5423
I75
ag57
aa(lp5424
I81
ag57
aa(lp5425
I90
ag57
aa(lp5426
I93
ag57
aa(lp5427
I100
ag57
aa(lp5428
I102
ag57
aa(lp5429
I104
ag57
aa(lp5430
I106
ag57
aa(lp5431
I108
ag57
aa(lp5432
I111
ag57
aa(lp5433
I113
ag57
aa(lp5434
I115
ag57
aa(lp5435
I117
ag57
aa(lp5436
I119
ag57
aa(lp5437
I121
ag57
aa(lp5438
I123
ag57
aa(lp5439
I125
ag57
aa(lp5440
I127
ag57
aa(lp5441
I130
ag57
aa(lp5442
I132
ag57
aa(lp5443
I138
ag57
aa(lp5444
I141
ag57
aa(lp5445
I150
ag57
aa(lp5446
I154
ag57
aa(lp5447
I157
ag57
aa(lp5448
I161
ag57
aasg13
I199
sg14
g57
sg17
g30
sbsg58
(iobjs
KeyFrame
p5449
(dp5450
g11
(lp5451
(lp5452
I1
ag62
aa(lp5453
I10
ag62
aa(lp5454
I18
ag62
aa(lp5455
I20
ag62
aa(lp5456
I28
ag62
aa(lp5457
I35
ag62
aa(lp5458
I39
ag62
aa(lp5459
I40
ag62
aa(lp5460
I43
ag62
aa(lp5461
I50
ag62
aa(lp5462
I54
ag62
aa(lp5463
I61
ag62
aa(lp5464
I65
ag62
aa(lp5465
I74
ag62
aa(lp5466
I75
ag62
aa(lp5467
I81
ag62
aa(lp5468
I90
ag62
aa(lp5469
I93
ag62
aa(lp5470
I100
ag62
aa(lp5471
I102
ag62
aa(lp5472
I104
ag62
aa(lp5473
I106
ag62
aa(lp5474
I108
ag62
aa(lp5475
I111
ag62
aa(lp5476
I113
ag62
aa(lp5477
I115
ag62
aa(lp5478
I117
ag62
aa(lp5479
I119
ag62
aa(lp5480
I121
ag62
aa(lp5481
I123
ag62
aa(lp5482
I125
ag62
aa(lp5483
I127
ag62
aa(lp5484
I130
ag62
aa(lp5485
I132
ag62
aa(lp5486
I138
ag62
aa(lp5487
I141
ag62
aa(lp5488
I150
ag62
aa(lp5489
I154
ag62
aa(lp5490
I157
ag62
aa(lp5491
I161
ag62
aasg13
I199
sg14
g62
sg17
g30
sbsg68
(iobjs
KeyFrame
p5492
(dp5493
g11
(lp5494
(lp5495
I1
aI00
aa(lp5496
I10
aI00
aa(lp5497
I18
aI00
aa(lp5498
I20
aI00
aa(lp5499
I28
aI00
aa(lp5500
I35
aI00
aa(lp5501
I39
aI00
aa(lp5502
I40
aI00
aa(lp5503
I43
aI00
aa(lp5504
I50
aI00
aa(lp5505
I54
aI00
aa(lp5506
I61
aI00
aa(lp5507
I65
aI00
aa(lp5508
I74
aI00
aa(lp5509
I75
aI00
aa(lp5510
I81
aI00
aa(lp5511
I90
aI00
aa(lp5512
I93
aI00
aa(lp5513
I100
aI00
aa(lp5514
I102
aI00
aa(lp5515
I104
aI00
aa(lp5516
I106
aI00
aa(lp5517
I108
aI00
aa(lp5518
I111
aI00
aa(lp5519
I113
aI00
aa(lp5520
I115
aI00
aa(lp5521
I117
aI00
aa(lp5522
I119
aI00
aa(lp5523
I121
aI00
aa(lp5524
I123
aI00
aa(lp5525
I125
aI00
aa(lp5526
I127
aI00
aa(lp5527
I130
aI00
aa(lp5528
I132
aI00
aa(lp5529
I138
aI00
aa(lp5530
I141
aI00
aa(lp5531
I150
aI00
aa(lp5532
I154
aI00
aa(lp5533
I157
aI00
aa(lp5534
I161
aI00
aasg13
I199
sg14
I00
sg17
g30
sbssg80
(dp5535
g63
g82
sg68
g83
sg72
g84
sg58
g85
sg76
g86
ssbsg87
(iobjs
KeyFrame
p5536
(dp5537
g11
(lp5538
(lp5539
I1
aI-15
aa(lp5540
I10
aI-15
aa(lp5541
I18
aF-96.431146831568071
aa(lp5542
I20
aF-88.54499913742012
aa(lp5543
F25.600000000000001
aF-159.34466762755852
aa(lp5544
F31.100000000000001
aF-119.98240619012728
aa(lp5545
F36.100000000000001
aF-91.866505163390684
aa(lp5546
I39
aF-111.48337486440488
aa(lp5547
I43
aF-84.833427353769821
aa(lp5548
I50
aF-117.68737139557055
aa(lp5549
I54
aF-30.612658308500158
aa(lp5550
I61
aF-15.39209203554125
aa(lp5551
F67.699999999999989
aF-0.82383574570917517
aa(lp5552
F71.099999999999994
aF28.114025566576885
aa(lp5553
I74
aF44.546621945793049
aa(lp5554
I81
aF64.209745252002762
aa(lp5555
I90
aF83.887738836399166
aa(lp5556
I93
aF97.531161340055633
aa(lp5557
I100
aF30.565376117698797
aa(lp5558
I102
aF23.087170237071284
aa(lp5559
I104
aF23.087170237071284
aa(lp5560
I106
aF23.087170237071284
aa(lp5561
I108
aF23.087170237071284
aa(lp5562
I111
aF23.087170237071284
aa(lp5563
I113
aF23.087170237071284
aa(lp5564
I115
aF23.087170237071284
aa(lp5565
I117
aF23.087170237071284
aa(lp5566
I119
aF23.087170237071284
aa(lp5567
I121
aF23.087170237071284
aa(lp5568
I123
aF23.087170237071284
aa(lp5569
I125
aF24.864162951802477
aa(lp5570
I127
aF24.864162951802477
aa(lp5571
I130
aF27.239629716258719
aa(lp5572
I132
aF27.239629716258719
aa(lp5573
I138
aF27.239629716258719
aa(lp5574
I141
aF28.151056975712947
aa(lp5575
I150
aF-10.839611609112239
aa(lp5576
I154
aF-29.558865133643621
aa(lp5577
I157
aF-19.469225284130175
aa(lp5578
I161
aF-15.0
aasg13
I199
sg14
F-15.0
sg17
g18
sbsg91
(iobjs
KeyFrame
p5579
(dp5580
g11
(lp5581
(lp5582
I1
aI00
aa(lp5583
I10
aI00
aa(lp5584
I18
aI00
aa(lp5585
I20
aI00
aa(lp5586
F25.600000000000001
aI00
aa(lp5587
F31.100000000000001
aI00
aa(lp5588
F36.100000000000001
aI00
aa(lp5589
I39
aI00
aa(lp5590
I43
aI00
aa(lp5591
I50
aI00
aa(lp5592
I54
aI00
aa(lp5593
I61
aI00
aa(lp5594
F67.699999999999989
aI00
aa(lp5595
F71.099999999999994
aI00
aa(lp5596
I74
aI00
aa(lp5597
I81
aI00
aa(lp5598
I90
aI00
aa(lp5599
I93
aI00
aa(lp5600
I100
aI00
aa(lp5601
I102
aI00
aa(lp5602
I104
aI00
aa(lp5603
I106
aI00
aa(lp5604
I108
aI00
aa(lp5605
I111
aI00
aa(lp5606
I113
aI00
aa(lp5607
I115
aI00
aa(lp5608
I117
aI00
aa(lp5609
I119
aI00
aa(lp5610
I121
aI00
aa(lp5611
I123
aI00
aa(lp5612
I125
aI00
aa(lp5613
I127
aI00
aa(lp5614
I130
aI00
aa(lp5615
I132
aI00
aa(lp5616
I138
aI00
aa(lp5617
I141
aI00
aa(lp5618
I150
aI00
aa(lp5619
I154
aI00
aa(lp5620
I157
aI00
aa(lp5621
I161
aI00
aasg13
I199
sg14
I00
sg17
g30
sbsg95
(iobjs
KeyFrame
p5622
(dp5623
g11
(lp5624
(lp5625
I1
aI00
aa(lp5626
I10
aI00
aa(lp5627
I18
aI00
aa(lp5628
I20
aI00
aa(lp5629
F25.600000000000001
aI00
aa(lp5630
F31.100000000000001
aI00
aa(lp5631
F36.100000000000001
aI00
aa(lp5632
I39
aI00
aa(lp5633
I43
aI00
aa(lp5634
I50
aI00
aa(lp5635
I54
aI00
aa(lp5636
I61
aI00
aa(lp5637
F67.699999999999989
aI00
aa(lp5638
F71.099999999999994
aI00
aa(lp5639
I74
aI00
aa(lp5640
I81
aI00
aa(lp5641
I90
aI00
aa(lp5642
I93
aI00
aa(lp5643
I100
aI00
aa(lp5644
I102
aI00
aa(lp5645
I104
aI00
aa(lp5646
I106
aI00
aa(lp5647
I108
aI00
aa(lp5648
I111
aI00
aa(lp5649
I113
aI00
aa(lp5650
I115
aI00
aa(lp5651
I117
aI00
aa(lp5652
I119
aI00
aa(lp5653
I121
aI00
aa(lp5654
I123
aI00
aa(lp5655
I125
aI00
aa(lp5656
I127
aI00
aa(lp5657
I130
aI00
aa(lp5658
I132
aI00
aa(lp5659
I138
aI00
aa(lp5660
I141
aI00
aa(lp5661
I150
aI00
aa(lp5662
I154
aI00
aa(lp5663
I157
aI00
aa(lp5664
I161
aI00
aasg13
I199
sg14
I00
sg17
g30
sbsg99
(lp5665
sasasa(dp5666
g26
(iobjs
KeyFrame
p5667
(dp5668
g11
(lp5669
(lp5670
I1
aI00
aa(lp5671
I10
aI00
aa(lp5672
I18
aI00
aa(lp5673
I20
aI00
aa(lp5674
F25.600000000000001
aI00
aa(lp5675
F31.100000000000001
aI00
aa(lp5676
F36.100000000000001
aI00
aa(lp5677
I39
aI00
aa(lp5678
I43
aI00
aa(lp5679
I50
aI00
aa(lp5680
I54
aI00
aa(lp5681
I61
aI00
aa(lp5682
F67.699999999999989
aI00
aa(lp5683
F71.099999999999994
aI00
aa(lp5684
I74
aI00
aa(lp5685
I81
aI00
aa(lp5686
I90
aI00
aa(lp5687
I93
aI00
aa(lp5688
I100
aI00
aa(lp5689
I102
aI00
aa(lp5690
I104
aI00
aa(lp5691
I106
aI00
aa(lp5692
I108
aI00
aa(lp5693
I111
aI00
aa(lp5694
I113
aI00
aa(lp5695
I115
aI00
aa(lp5696
I117
aI00
aa(lp5697
I119
aI00
aa(lp5698
I121
aI00
aa(lp5699
I123
aI00
aa(lp5700
I125
aI00
aa(lp5701
I127
aI00
aa(lp5702
I130
aI00
aa(lp5703
I132
aI00
aa(lp5704
I138
aI00
aa(lp5705
I142
aI00
aa(lp5706
I150
aI00
aa(lp5707
I154
aI00
aa(lp5708
I157
aI00
aa(lp5709
I161
aI00
aasg13
I199
sg14
I00
sg17
g30
sbsg31
(iobjs
KeyFrame
p5710
(dp5711
g11
(lp5712
(lp5713
I1
aI50
aa(lp5714
I10
aI50
aa(lp5715
I18
aI50
aa(lp5716
I20
aI50
aa(lp5717
F25.600000000000001
aI50
aa(lp5718
F31.100000000000001
aF50.0
aa(lp5719
F36.100000000000001
aI50
aa(lp5720
I39
aI50
aa(lp5721
I43
aI50
aa(lp5722
I50
aI50
aa(lp5723
I54
aI50
aa(lp5724
I61
aF50.0
aa(lp5725
F67.699999999999989
aI50
aa(lp5726
F71.099999999999994
aI50
aa(lp5727
I74
aI50
aa(lp5728
I81
aI50
aa(lp5729
I90
aI50
aa(lp5730
I93
aI50
aa(lp5731
I100
aI50
aa(lp5732
I102
aI50
aa(lp5733
I104
aI50
aa(lp5734
I106
aI50
aa(lp5735
I108
aI50
aa(lp5736
I111
aI50
aa(lp5737
I113
aI50
aa(lp5738
I115
aI50
aa(lp5739
I117
aI50
aa(lp5740
I119
aI50
aa(lp5741
I121
aI50
aa(lp5742
I123
aI50
aa(lp5743
I125
aI50
aa(lp5744
I127
aI50
aa(lp5745
I130
aI50
aa(lp5746
I132
aI50
aa(lp5747
I138
aI50
aa(lp5748
I142
aF50.0
aa(lp5749
I150
aI50
aa(lp5750
I154
aI50
aa(lp5751
I157
aI50
aa(lp5752
I161
aI50
aasg13
I199
sg14
I50
sg17
g18
sbsg35
(iobjs
KeyFrame
p5753
(dp5754
g11
(lp5755
(lp5756
I1
a(I0
I0
I0
tp5757
aa(lp5758
I10
ag5757
aa(lp5759
I18
ag5757
aa(lp5760
I20
ag5757
aa(lp5761
F25.600000000000001
ag5757
aa(lp5762
F31.100000000000001
a(lp5763
F0.0
aF0.0
aF0.0
aaa(lp5764
F36.100000000000001
ag5757
aa(lp5765
I39
ag5757
aa(lp5766
I43
ag5757
aa(lp5767
I50
ag5757
aa(lp5768
I54
ag5757
aa(lp5769
I61
a(lp5770
F0.0
aF0.0
aF0.0
aaa(lp5771
F67.699999999999989
ag5757
aa(lp5772
F71.099999999999994
ag5757
aa(lp5773
I74
ag5757
aa(lp5774
I81
ag5757
aa(lp5775
I90
ag5757
aa(lp5776
I93
ag5757
aa(lp5777
I100
ag5757
aa(lp5778
I102
ag5757
aa(lp5779
I104
ag5757
aa(lp5780
I106
ag5757
aa(lp5781
I108
ag5757
aa(lp5782
I111
ag5757
aa(lp5783
I113
ag5757
aa(lp5784
I115
ag5757
aa(lp5785
I117
ag5757
aa(lp5786
I119
ag5757
aa(lp5787
I121
ag5757
aa(lp5788
I123
ag5757
aa(lp5789
I125
ag5757
aa(lp5790
I127
ag5757
aa(lp5791
I130
ag5757
aa(lp5792
I132
ag5757
aa(lp5793
I138
ag5757
aa(lp5794
I142
a(lp5795
F0.0
aF0.0
aF0.0
aaa(lp5796
I150
ag5757
aa(lp5797
I154
ag5757
aa(lp5798
I157
ag5757
aa(lp5799
I161
ag5757
aasg13
I199
sg14
g5757
sg17
g18
sbsg8
(iobjs
KeyFrame
p5800
(dp5801
g11
(lp5802
(lp5803
I1
a(iobjs
Vector
p5804
(dp5805
g6
I0
sg7
I0
sbaa(lp5806
I10
a(iobjs
Vector
p5807
(dp5808
g6
I0
sg7
I0
sbaa(lp5809
I18
a(iobjs
Vector
p5810
(dp5811
g6
I0
sg7
I0
sbaa(lp5812
I20
a(iobjs
Vector
p5813
(dp5814
g6
I0
sg7
I0
sbaa(lp5815
F25.600000000000001
a(iobjs
Vector
p5816
(dp5817
g6
I0
sg7
I0
sbaa(lp5818
F31.100000000000001
a(lp5819
F0.0
aF0.0
aaa(lp5820
F36.100000000000001
a(iobjs
Vector
p5821
(dp5822
g6
I0
sg7
I0
sbaa(lp5823
I39
a(iobjs
Vector
p5824
(dp5825
g6
I0
sg7
I0
sbaa(lp5826
I43
a(iobjs
Vector
p5827
(dp5828
g6
I0
sg7
I0
sbaa(lp5829
I50
a(iobjs
Vector
p5830
(dp5831
g6
I0
sg7
I0
sbaa(lp5832
I54
a(iobjs
Vector
p5833
(dp5834
g6
I0
sg7
I0
sbaa(lp5835
I61
a(lp5836
F0.0
aF0.0
aaa(lp5837
F67.699999999999989
a(iobjs
Vector
p5838
(dp5839
g6
I0
sg7
I0
sbaa(lp5840
F71.099999999999994
a(iobjs
Vector
p5841
(dp5842
g6
I0
sg7
I0
sbaa(lp5843
I74
a(iobjs
Vector
p5844
(dp5845
g6
I0
sg7
I0
sbaa(lp5846
I81
a(iobjs
Vector
p5847
(dp5848
g6
I0
sg7
I0
sbaa(lp5849
I90
a(iobjs
Vector
p5850
(dp5851
g6
I0
sg7
I0
sbaa(lp5852
I93
a(iobjs
Vector
p5853
(dp5854
g6
I0
sg7
I0
sbaa(lp5855
I100
a(iobjs
Vector
p5856
(dp5857
g6
I0
sg7
I0
sbaa(lp5858
I102
a(iobjs
Vector
p5859
(dp5860
g6
I0
sg7
I0
sbaa(lp5861
I104
a(iobjs
Vector
p5862
(dp5863
g6
I0
sg7
I0
sbaa(lp5864
I106
a(iobjs
Vector
p5865
(dp5866
g6
I0
sg7
I0
sbaa(lp5867
I108
a(iobjs
Vector
p5868
(dp5869
g6
I0
sg7
I0
sbaa(lp5870
I111
a(iobjs
Vector
p5871
(dp5872
g6
I0
sg7
I0
sbaa(lp5873
I113
a(iobjs
Vector
p5874
(dp5875
g6
I0
sg7
I0
sbaa(lp5876
I115
a(iobjs
Vector
p5877
(dp5878
g6
I0
sg7
I0
sbaa(lp5879
I117
a(iobjs
Vector
p5880
(dp5881
g6
I0
sg7
I0
sbaa(lp5882
I119
a(iobjs
Vector
p5883
(dp5884
g6
I0
sg7
I0
sbaa(lp5885
I121
a(iobjs
Vector
p5886
(dp5887
g6
I0
sg7
I0
sbaa(lp5888
I123
a(iobjs
Vector
p5889
(dp5890
g6
I0
sg7
I0
sbaa(lp5891
I125
a(iobjs
Vector
p5892
(dp5893
g6
I0
sg7
I0
sbaa(lp5894
I127
a(iobjs
Vector
p5895
(dp5896
g6
I0
sg7
I0
sbaa(lp5897
I130
a(iobjs
Vector
p5898
(dp5899
g6
I0
sg7
I0
sbaa(lp5900
I132
a(iobjs
Vector
p5901
(dp5902
g6
I0
sg7
I0
sbaa(lp5903
I138
a(iobjs
Vector
p5904
(dp5905
g6
I0
sg7
I0
sbaa(lp5906
I142
a(lp5907
F0.0
aF0.0
aaa(lp5908
I150
a(iobjs
Vector
p5909
(dp5910
g6
I0
sg7
I0
sbaa(lp5911
I154
a(iobjs
Vector
p5912
(dp5913
g6
I0
sg7
I0
sbaa(lp5914
I157
a(iobjs
Vector
p5915
(dp5916
g6
I0
sg7
I0
sbaa(lp5917
I161
a(iobjs
Vector
p5918
(dp5919
g6
I0
sg7
I0
sbaasg13
I199
sg14
g5918
sg17
g18
sbsg45
(iobjs
KeyFrame
p5920
(dp5921
g11
(lp5922
(lp5923
I1
aI7
aa(lp5924
I10
aI7
aa(lp5925
I18
aI7
aa(lp5926
I20
aI7
aa(lp5927
F25.600000000000001
aI7
aa(lp5928
F31.100000000000001
aF7.0
aa(lp5929
F36.100000000000001
aI7
aa(lp5930
I39
aI7
aa(lp5931
I43
aI7
aa(lp5932
I50
aI7
aa(lp5933
I54
aI7
aa(lp5934
I61
aF7.0
aa(lp5935
F67.699999999999989
aI7
aa(lp5936
F71.099999999999994
aI7
aa(lp5937
I74
aI7
aa(lp5938
I81
aI7
aa(lp5939
I90
aI7
aa(lp5940
I93
aI7
aa(lp5941
I100
aI7
aa(lp5942
I102
aI7
aa(lp5943
I104
aI7
aa(lp5944
I106
aI7
aa(lp5945
I108
aI7
aa(lp5946
I111
aI7
aa(lp5947
I113
aI7
aa(lp5948
I115
aI7
aa(lp5949
I117
aI7
aa(lp5950
I119
aI7
aa(lp5951
I121
aI7
aa(lp5952
I123
aI7
aa(lp5953
I125
aI7
aa(lp5954
I127
aI7
aa(lp5955
I130
aI7
aa(lp5956
I132
aI7
aa(lp5957
I138
aI7
aa(lp5958
I142
aF7.0
aa(lp5959
I150
aI7
aa(lp5960
I154
aI7
aa(lp5961
I157
aI7
aa(lp5962
I161
aI7
aasg13
I199
sg14
I7
sg17
g18
sbsg49
(iobjs
Texture
p5963
(dp5964
g13
I199
sg52
(dp5965
g63
(iobjs
KeyFrame
p5966
(dp5967
g11
(lp5968
(lp5969
I1
ag67
aa(lp5970
I10
ag67
aa(lp5971
I18
ag67
aa(lp5972
I20
ag67
aa(lp5973
I28
ag67
aa(lp5974
I35
ag67
aa(lp5975
I39
ag67
aa(lp5976
I40
ag67
aa(lp5977
I43
ag67
aa(lp5978
I50
ag67
aa(lp5979
I54
ag67
aa(lp5980
I61
ag67
aa(lp5981
I65
ag67
aa(lp5982
I74
ag67
aa(lp5983
I75
ag67
aa(lp5984
I81
ag67
aa(lp5985
I90
ag67
aa(lp5986
I93
ag67
aa(lp5987
I100
ag67
aa(lp5988
I102
ag67
aa(lp5989
I104
ag67
aa(lp5990
I106
ag67
aa(lp5991
I108
ag67
aa(lp5992
I111
ag67
aa(lp5993
I113
ag67
aa(lp5994
I115
ag67
aa(lp5995
I117
ag67
aa(lp5996
I119
ag67
aa(lp5997
I121
ag67
aa(lp5998
I123
ag67
aa(lp5999
I125
ag67
aa(lp6000
I127
ag67
aa(lp6001
I130
ag67
aa(lp6002
I132
ag67
aa(lp6003
I138
ag67
aa(lp6004
I142
ag67
aa(lp6005
I150
ag67
aa(lp6006
I154
ag67
aa(lp6007
I157
ag67
aa(lp6008
I161
ag67
aasg13
I199
sg14
g67
sg17
g30
sbsg72
(iobjs
KeyFrame
p6009
(dp6010
g11
(lp6011
(lp6012
I1
aI01
aa(lp6013
I10
aI01
aa(lp6014
I18
aI01
aa(lp6015
I20
aI01
aa(lp6016
I28
aI01
aa(lp6017
I35
aI01
aa(lp6018
I39
aI01
aa(lp6019
I40
aI01
aa(lp6020
I43
aI01
aa(lp6021
I50
aI01
aa(lp6022
I54
aI01
aa(lp6023
I61
aI01
aa(lp6024
I65
aI01
aa(lp6025
I74
aI01
aa(lp6026
I75
aI01
aa(lp6027
I81
aI01
aa(lp6028
I90
aI01
aa(lp6029
I93
aI01
aa(lp6030
I100
aI01
aa(lp6031
I102
aI01
aa(lp6032
I104
aI01
aa(lp6033
I106
aI01
aa(lp6034
I108
aI01
aa(lp6035
I111
aI01
aa(lp6036
I113
aI01
aa(lp6037
I115
aI01
aa(lp6038
I117
aI01
aa(lp6039
I119
aI01
aa(lp6040
I121
aI01
aa(lp6041
I123
aI01
aa(lp6042
I125
aI01
aa(lp6043
I127
aI01
aa(lp6044
I130
aI01
aa(lp6045
I132
aI01
aa(lp6046
I138
aI01
aa(lp6047
I142
aI01
aa(lp6048
I150
aI01
aa(lp6049
I154
aI01
aa(lp6050
I157
aI01
aa(lp6051
I161
aI01
aasg13
I199
sg14
I01
sg17
g30
sbsg76
(iobjs
KeyFrame
p6052
(dp6053
g11
(lp6054
(lp6055
I1
aI01
aa(lp6056
I10
aI01
aa(lp6057
I18
aI01
aa(lp6058
I20
aI01
aa(lp6059
I28
aI01
aa(lp6060
I35
aI01
aa(lp6061
I39
aI01
aa(lp6062
I40
aI01
aa(lp6063
I43
aI01
aa(lp6064
I50
aI01
aa(lp6065
I54
aI01
aa(lp6066
I61
aI01
aa(lp6067
I65
aI01
aa(lp6068
I74
aI01
aa(lp6069
I75
aI01
aa(lp6070
I81
aI01
aa(lp6071
I90
aI01
aa(lp6072
I93
aI01
aa(lp6073
I100
aI01
aa(lp6074
I102
aI01
aa(lp6075
I104
aI01
aa(lp6076
I106
aI01
aa(lp6077
I108
aI01
aa(lp6078
I111
aI01
aa(lp6079
I113
aI01
aa(lp6080
I115
aI01
aa(lp6081
I117
aI01
aa(lp6082
I119
aI01
aa(lp6083
I121
aI01
aa(lp6084
I123
aI01
aa(lp6085
I125
aI01
aa(lp6086
I127
aI01
aa(lp6087
I130
aI01
aa(lp6088
I132
aI01
aa(lp6089
I138
aI01
aa(lp6090
I142
aI01
aa(lp6091
I150
aI01
aa(lp6092
I154
aI01
aa(lp6093
I157
aI01
aa(lp6094
I161
aI01
aasg13
I199
sg14
I01
sg17
g30
sbsg49
(iobjs
KeyFrame
p6095
(dp6096
g11
(lp6097
(lp6098
I1
ag57
aa(lp6099
I10
ag57
aa(lp6100
I18
ag57
aa(lp6101
I20
ag57
aa(lp6102
I28
ag57
aa(lp6103
I35
ag57
aa(lp6104
I39
ag57
aa(lp6105
I40
ag57
aa(lp6106
I43
ag57
aa(lp6107
I50
ag57
aa(lp6108
I54
ag57
aa(lp6109
I61
ag57
aa(lp6110
I65
ag57
aa(lp6111
I74
ag57
aa(lp6112
I75
ag57
aa(lp6113
I81
ag57
aa(lp6114
I90
ag57
aa(lp6115
I93
ag57
aa(lp6116
I100
ag57
aa(lp6117
I102
ag57
aa(lp6118
I104
ag57
aa(lp6119
I106
ag57
aa(lp6120
I108
ag57
aa(lp6121
I111
ag57
aa(lp6122
I113
ag57
aa(lp6123
I115
ag57
aa(lp6124
I117
ag57
aa(lp6125
I119
ag57
aa(lp6126
I121
ag57
aa(lp6127
I123
ag57
aa(lp6128
I125
ag57
aa(lp6129
I127
ag57
aa(lp6130
I130
ag57
aa(lp6131
I132
ag57
aa(lp6132
I138
ag57
aa(lp6133
I142
ag57
aa(lp6134
I150
ag57
aa(lp6135
I154
ag57
aa(lp6136
I157
ag57
aa(lp6137
I161
ag57
aasg13
I199
sg14
g57
sg17
g30
sbsg58
(iobjs
KeyFrame
p6138
(dp6139
g11
(lp6140
(lp6141
I1
ag62
aa(lp6142
I10
ag62
aa(lp6143
I18
ag62
aa(lp6144
I20
ag62
aa(lp6145
I28
ag62
aa(lp6146
I35
ag62
aa(lp6147
I39
ag62
aa(lp6148
I40
ag62
aa(lp6149
I43
ag62
aa(lp6150
I50
ag62
aa(lp6151
I54
ag62
aa(lp6152
I61
ag62
aa(lp6153
I65
ag62
aa(lp6154
I74
ag62
aa(lp6155
I75
ag62
aa(lp6156
I81
ag62
aa(lp6157
I90
ag62
aa(lp6158
I93
ag62
aa(lp6159
I100
ag62
aa(lp6160
I102
ag62
aa(lp6161
I104
ag62
aa(lp6162
I106
ag62
aa(lp6163
I108
ag62
aa(lp6164
I111
ag62
aa(lp6165
I113
ag62
aa(lp6166
I115
ag62
aa(lp6167
I117
ag62
aa(lp6168
I119
ag62
aa(lp6169
I121
ag62
aa(lp6170
I123
ag62
aa(lp6171
I125
ag62
aa(lp6172
I127
ag62
aa(lp6173
I130
ag62
aa(lp6174
I132
ag62
aa(lp6175
I138
ag62
aa(lp6176
I142
ag62
aa(lp6177
I150
ag62
aa(lp6178
I154
ag62
aa(lp6179
I157
ag62
aa(lp6180
I161
ag62
aasg13
I199
sg14
g62
sg17
g30
sbsg68
(iobjs
KeyFrame
p6181
(dp6182
g11
(lp6183
(lp6184
I1
aI00
aa(lp6185
I10
aI00
aa(lp6186
I18
aI00
aa(lp6187
I20
aI00
aa(lp6188
I28
aI00
aa(lp6189
I35
aI00
aa(lp6190
I39
aI00
aa(lp6191
I40
aI00
aa(lp6192
I43
aI00
aa(lp6193
I50
aI00
aa(lp6194
I54
aI00
aa(lp6195
I61
aI00
aa(lp6196
I65
aI00
aa(lp6197
I74
aI00
aa(lp6198
I75
aI00
aa(lp6199
I81
aI00
aa(lp6200
I90
aI00
aa(lp6201
I93
aI00
aa(lp6202
I100
aI00
aa(lp6203
I102
aI00
aa(lp6204
I104
aI00
aa(lp6205
I106
aI00
aa(lp6206
I108
aI00
aa(lp6207
I111
aI00
aa(lp6208
I113
aI00
aa(lp6209
I115
aI00
aa(lp6210
I117
aI00
aa(lp6211
I119
aI00
aa(lp6212
I121
aI00
aa(lp6213
I123
aI00
aa(lp6214
I125
aI00
aa(lp6215
I127
aI00
aa(lp6216
I130
aI00
aa(lp6217
I132
aI00
aa(lp6218
I138
aI00
aa(lp6219
I142
aI00
aa(lp6220
I150
aI00
aa(lp6221
I154
aI00
aa(lp6222
I157
aI00
aa(lp6223
I161
aI00
aasg13
I199
sg14
I00
sg17
g30
sbssg80
(dp6224
g63
g82
sg68
g83
sg72
g84
sg58
g85
sg76
g86
ssbsg87
(iobjs
KeyFrame
p6225
(dp6226
g11
(lp6227
(lp6228
I1
aI67
aa(lp6229
I10
aI67
aa(lp6230
I18
aF27.121303404158667
aa(lp6231
I20
aF13.840695491655623
aa(lp6232
F25.600000000000001
aF130.95260392113278
aa(lp6233
F31.100000000000001
aF132.18381488919522
aa(lp6234
F36.100000000000001
aF56.633633998940439
aa(lp6235
I39
aF80.537677791974374
aa(lp6236
I43
aF89.236101539070006
aa(lp6237
I50
aF121.60750224624888
aa(lp6238
I54
aF156.37062226934319
aa(lp6239
I61
aF81.982906926344668
aa(lp6240
F67.699999999999989
aF46.02303018866786
aa(lp6241
F71.099999999999994
aF139.82076607809265
aa(lp6242
I74
aF133.80651057601796
aa(lp6243
I81
aF145.14554443389633
aa(lp6244
I90
aF153.43494882292202
aa(lp6245
I93
aF133.93908830973578
aa(lp6246
I100
aF166.39945748334128
aa(lp6247
I102
aF132.56335175318986
aa(lp6248
I104
aF111.93848046770648
aa(lp6249
I106
aF83.9559078377589
aa(lp6250
I108
aF62.801872051490875
aa(lp6251
I111
aF45.954841253872189
aa(lp6252
I113
aF28.842660135412075
aa(lp6253
I115
aF17.24145939893998
aa(lp6254
I117
aF18.178018798418549
aa(lp6255
I119
aF34.592288687509949
aa(lp6256
I121
aF58.0693178962822
aa(lp6257
I123
aF74.148071845713048
aa(lp6258
I125
aF83.91147184580484
aa(lp6259
I127
aF97.495857639729849
aa(lp6260
I130
aF95.262395399595107
aa(lp6261
I132
aF93.865461169851756
aa(lp6262
I138
aF93.865461169851756
aa(lp6263
I142
aF100.63667649546423
aa(lp6264
I150
aF114.17910714668918
aa(lp6265
I154
aF128.19094982038661
aa(lp6266
I157
aF119.59229635935799
aa(lp6267
I161
aF113.0
aasg13
I199
sg14
F113.0
sg17
g18
sbsg91
(iobjs
KeyFrame
p6268
(dp6269
g11
(lp6270
(lp6271
I1
aI00
aa(lp6272
I10
aI00
aa(lp6273
I18
aI00
aa(lp6274
I20
aI00
aa(lp6275
F25.600000000000001
aI00
aa(lp6276
F31.100000000000001
aI00
aa(lp6277
F36.100000000000001
aI00
aa(lp6278
I39
aI00
aa(lp6279
I43
aI00
aa(lp6280
I50
aI00
aa(lp6281
I54
aI00
aa(lp6282
I61
aI00
aa(lp6283
F67.699999999999989
aI00
aa(lp6284
F71.099999999999994
aI00
aa(lp6285
I74
aI00
aa(lp6286
I81
aI00
aa(lp6287
I90
aI00
aa(lp6288
I93
aI00
aa(lp6289
I100
aI00
aa(lp6290
I102
aI00
aa(lp6291
I104
aI00
aa(lp6292
I106
aI00
aa(lp6293
I108
aI00
aa(lp6294
I111
aI00
aa(lp6295
I113
aI00
aa(lp6296
I115
aI00
aa(lp6297
I117
aI00
aa(lp6298
I119
aI00
aa(lp6299
I121
aI00
aa(lp6300
I123
aI00
aa(lp6301
I125
aI00
aa(lp6302
I127
aI00
aa(lp6303
I130
aI00
aa(lp6304
I132
aI00
aa(lp6305
I138
aI00
aa(lp6306
I142
aI00
aa(lp6307
I150
aI00
aa(lp6308
I154
aI00
aa(lp6309
I157
aI00
aa(lp6310
I161
aI00
aasg13
I199
sg14
I00
sg17
g30
sbsg95
(iobjs
KeyFrame
p6311
(dp6312
g11
(lp6313
(lp6314
I1
aI00
aa(lp6315
I10
aI00
aa(lp6316
I18
aI00
aa(lp6317
I20
aI00
aa(lp6318
F25.600000000000001
aI00
aa(lp6319
F31.100000000000001
aI00
aa(lp6320
F36.100000000000001
aI00
aa(lp6321
I39
aI00
aa(lp6322
I43
aI00
aa(lp6323
I50
aI00
aa(lp6324
I54
aI00
aa(lp6325
I61
aI00
aa(lp6326
F67.699999999999989
aI00
aa(lp6327
F71.099999999999994
aI00
aa(lp6328
I74
aI00
aa(lp6329
I81
aI00
aa(lp6330
I90
aI00
aa(lp6331
I93
aI00
aa(lp6332
I100
aI00
aa(lp6333
I102
aI00
aa(lp6334
I104
aI00
aa(lp6335
I106
aI00
aa(lp6336
I108
aI00
aa(lp6337
I111
aI00
aa(lp6338
I113
aI00
aa(lp6339
I115
aI00
aa(lp6340
I117
aI00
aa(lp6341
I119
aI00
aa(lp6342
I121
aI00
aa(lp6343
I123
aI00
aa(lp6344
I125
aI00
aa(lp6345
I127
aI00
aa(lp6346
I130
aI00
aa(lp6347
I132
aI00
aa(lp6348
I138
aI00
aa(lp6349
I142
aI00
aa(lp6350
I150
aI00
aa(lp6351
I154
aI00
aa(lp6352
I157
aI00
aa(lp6353
I161
aI00
aasg13
I199
sg14
I00
sg17
g30
sbsg99
(lp6354
(dp6355
g26
(iobjs
KeyFrame
p6356
(dp6357
g11
(lp6358
(lp6359
I1
aI00
aa(lp6360
I10
aI00
aa(lp6361
I18
aI00
aa(lp6362
I20
aI00
aa(lp6363
F25.600000000000001
aI00
aa(lp6364
F31.100000000000001
aI00
aa(lp6365
F36.100000000000001
aI00
aa(lp6366
I39
aI00
aa(lp6367
I43
aI00
aa(lp6368
I50
aI00
aa(lp6369
I54
aI00
aa(lp6370
I61
aI00
aa(lp6371
F67.699999999999989
aI00
aa(lp6372
F71.099999999999994
aI00
aa(lp6373
I74
aI00
aa(lp6374
I81
aI00
aa(lp6375
I90
aI00
aa(lp6376
I93
aI00
aa(lp6377
I100
aI00
aa(lp6378
I102
aI00
aa(lp6379
I104
aI00
aa(lp6380
I106
aI00
aa(lp6381
I108
aI00
aa(lp6382
I111
aI00
aa(lp6383
I113
aI00
aa(lp6384
I115
aI00
aa(lp6385
I117
aI00
aa(lp6386
I119
aI00
aa(lp6387
I121
aI00
aa(lp6388
I123
aI00
aa(lp6389
I125
aI00
aa(lp6390
I127
aI00
aa(lp6391
I130
aI00
aa(lp6392
I132
aI00
aa(lp6393
I138
aI00
aa(lp6394
I142
aI00
aa(lp6395
I150
aI00
aa(lp6396
I154
aI00
aa(lp6397
I157
aI00
aa(lp6398
I161
aI00
aasg13
I199
sg14
I00
sg17
g30
sbsg31
(iobjs
KeyFrame
p6399
(dp6400
g11
(lp6401
(lp6402
I1
aI50
aa(lp6403
I10
aI50
aa(lp6404
I18
aI50
aa(lp6405
I20
aI50
aa(lp6406
F25.600000000000001
aI50
aa(lp6407
F31.100000000000001
aF50.0
aa(lp6408
F36.100000000000001
aI50
aa(lp6409
I39
aI50
aa(lp6410
I43
aI50
aa(lp6411
I50
aI50
aa(lp6412
I54
aI50
aa(lp6413
I61
aF50.0
aa(lp6414
F67.699999999999989
aI50
aa(lp6415
F71.099999999999994
aI50
aa(lp6416
I74
aI50
aa(lp6417
I81
aI50
aa(lp6418
I90
aI50
aa(lp6419
I93
aI50
aa(lp6420
I100
aI50
aa(lp6421
I102
aI50
aa(lp6422
I104
aI50
aa(lp6423
I106
aI50
aa(lp6424
I108
aI50
aa(lp6425
I111
aI50
aa(lp6426
I113
aI50
aa(lp6427
I115
aI50
aa(lp6428
I117
aI50
aa(lp6429
I119
aI50
aa(lp6430
I121
aI50
aa(lp6431
I123
aI50
aa(lp6432
I125
aI50
aa(lp6433
I127
aI50
aa(lp6434
I130
aI50
aa(lp6435
I132
aI50
aa(lp6436
I138
aI50
aa(lp6437
I142
aF50.0
aa(lp6438
I150
aI50
aa(lp6439
I154
aI50
aa(lp6440
I157
aI50
aa(lp6441
I161
aI50
aasg13
I199
sg14
I50
sg17
g18
sbsg35
(iobjs
KeyFrame
p6442
(dp6443
g11
(lp6444
(lp6445
I1
a(lp6446
I0
aI0
aI0
aaa(lp6447
I10
a(lp6448
I0
aI0
aI0
aaa(lp6449
I18
a(lp6450
I0
aI0
aI0
aaa(lp6451
I20
a(lp6452
I0
aI0
aI0
aaa(lp6453
F25.600000000000001
a(lp6454
I0
aI0
aI0
aaa(lp6455
F31.100000000000001
a(lp6456
F0.0
aF0.0
aF0.0
aaa(lp6457
F36.100000000000001
a(lp6458
I0
aI0
aI0
aaa(lp6459
I39
a(lp6460
I0
aI0
aI0
aaa(lp6461
I43
a(lp6462
I0
aI0
aI0
aaa(lp6463
I50
a(lp6464
I0
aI0
aI0
aaa(lp6465
I54
a(lp6466
I0
aI0
aI0
aaa(lp6467
I61
a(lp6468
F0.0
aF0.0
aF0.0
aaa(lp6469
F67.699999999999989
a(lp6470
I0
aI0
aI0
aaa(lp6471
F71.099999999999994
a(lp6472
I0
aI0
aI0
aaa(lp6473
I74
a(lp6474
I0
aI0
aI0
aaa(lp6475
I81
a(lp6476
I0
aI0
aI0
aaa(lp6477
I90
a(lp6478
I0
aI0
aI0
aaa(lp6479
I93
a(lp6480
I0
aI0
aI0
aaa(lp6481
I100
a(lp6482
I0
aI0
aI0
aaa(lp6483
I102
a(lp6484
I0
aI0
aI0
aaa(lp6485
I104
a(lp6486
I0
aI0
aI0
aaa(lp6487
I106
a(lp6488
I0
aI0
aI0
aaa(lp6489
I108
a(lp6490
I0
aI0
aI0
aaa(lp6491
I111
a(lp6492
I0
aI0
aI0
aaa(lp6493
I113
a(lp6494
I0
aI0
aI0
aaa(lp6495
I115
a(lp6496
I0
aI0
aI0
aaa(lp6497
I117
a(lp6498
I0
aI0
aI0
aaa(lp6499
I119
a(lp6500
I0
aI0
aI0
aaa(lp6501
I121
a(lp6502
I0
aI0
aI0
aaa(lp6503
I123
a(lp6504
I0
aI0
aI0
aaa(lp6505
I125
a(lp6506
I0
aI0
aI0
aaa(lp6507
I127
a(lp6508
I0
aI0
aI0
aaa(lp6509
I130
a(lp6510
I0
aI0
aI0
aaa(lp6511
I132
a(lp6512
I0
aI0
aI0
aaa(lp6513
I138
a(lp6514
I0
aI0
aI0
aaa(lp6515
I142
a(lp6516
F0.0
aF0.0
aF0.0
aaa(lp6517
I150
a(lp6518
I0
aI0
aI0
aaa(lp6519
I154
a(lp6520
I0
aI0
aI0
aaa(lp6521
I157
a(lp6522
I0
aI0
aI0
aaa(lp6523
I161
a(lp6524
I0
aI0
aI0
aaasg13
I199
sg14
g6524
sg17
g18
sbsg8
(iobjs
KeyFrame
p6525
(dp6526
g11
(lp6527
(lp6528
I1
a(iobjs
Vector
p6529
(dp6530
g6
I0
sg7
I0
sbaa(lp6531
I10
a(iobjs
Vector
p6532
(dp6533
g6
I0
sg7
I0
sbaa(lp6534
I18
a(iobjs
Vector
p6535
(dp6536
g6
I0
sg7
I0
sbaa(lp6537
I20
a(iobjs
Vector
p6538
(dp6539
g6
I0
sg7
I0
sbaa(lp6540
F25.600000000000001
a(iobjs
Vector
p6541
(dp6542
g6
I0
sg7
I0
sbaa(lp6543
F31.100000000000001
a(lp6544
F0.0
aF0.0
aaa(lp6545
F36.100000000000001
a(iobjs
Vector
p6546
(dp6547
g6
I0
sg7
I0
sbaa(lp6548
I39
a(iobjs
Vector
p6549
(dp6550
g6
I0
sg7
I0
sbaa(lp6551
I43
a(iobjs
Vector
p6552
(dp6553
g6
I0
sg7
I0
sbaa(lp6554
I50
a(iobjs
Vector
p6555
(dp6556
g6
I0
sg7
I0
sbaa(lp6557
I54
a(iobjs
Vector
p6558
(dp6559
g6
I0
sg7
I0
sbaa(lp6560
I61
a(lp6561
F0.0
aF0.0
aaa(lp6562
F67.699999999999989
a(iobjs
Vector
p6563
(dp6564
g6
I0
sg7
I0
sbaa(lp6565
F71.099999999999994
a(iobjs
Vector
p6566
(dp6567
g6
I0
sg7
I0
sbaa(lp6568
I74
a(iobjs
Vector
p6569
(dp6570
g6
I0
sg7
I0
sbaa(lp6571
I81
a(iobjs
Vector
p6572
(dp6573
g6
I0
sg7
I0
sbaa(lp6574
I90
a(iobjs
Vector
p6575
(dp6576
g6
I0
sg7
I0
sbaa(lp6577
I93
a(iobjs
Vector
p6578
(dp6579
g6
I0
sg7
I0
sbaa(lp6580
I100
a(iobjs
Vector
p6581
(dp6582
g6
I0
sg7
I0
sbaa(lp6583
I102
a(iobjs
Vector
p6584
(dp6585
g6
I0
sg7
I0
sbaa(lp6586
I104
a(iobjs
Vector
p6587
(dp6588
g6
I0
sg7
I0
sbaa(lp6589
I106
a(iobjs
Vector
p6590
(dp6591
g6
I0
sg7
I0
sbaa(lp6592
I108
a(iobjs
Vector
p6593
(dp6594
g6
I0
sg7
I0
sbaa(lp6595
I111
a(iobjs
Vector
p6596
(dp6597
g6
I0
sg7
I0
sbaa(lp6598
I113
a(iobjs
Vector
p6599
(dp6600
g6
I0
sg7
I0
sbaa(lp6601
I115
a(iobjs
Vector
p6602
(dp6603
g6
I0
sg7
I0
sbaa(lp6604
I117
a(iobjs
Vector
p6605
(dp6606
g6
I0
sg7
I0
sbaa(lp6607
I119
a(iobjs
Vector
p6608
(dp6609
g6
I0
sg7
I0
sbaa(lp6610
I121
a(iobjs
Vector
p6611
(dp6612
g6
I0
sg7
I0
sbaa(lp6613
I123
a(iobjs
Vector
p6614
(dp6615
g6
I0
sg7
I0
sbaa(lp6616
I125
a(iobjs
Vector
p6617
(dp6618
g6
I0
sg7
I0
sbaa(lp6619
I127
a(iobjs
Vector
p6620
(dp6621
g6
I0
sg7
I0
sbaa(lp6622
I130
a(iobjs
Vector
p6623
(dp6624
g6
I0
sg7
I0
sbaa(lp6625
I132
a(iobjs
Vector
p6626
(dp6627
g6
I0
sg7
I0
sbaa(lp6628
I138
a(iobjs
Vector
p6629
(dp6630
g6
I0
sg7
I0
sbaa(lp6631
I142
a(lp6632
F0.0
aF0.0
aaa(lp6633
I150
a(iobjs
Vector
p6634
(dp6635
g6
I0
sg7
I0
sbaa(lp6636
I154
a(iobjs
Vector
p6637
(dp6638
g6
I0
sg7
I0
sbaa(lp6639
I157
a(iobjs
Vector
p6640
(dp6641
g6
I0
sg7
I0
sbaa(lp6642
I161
a(iobjs
Vector
p6643
(dp6644
g6
I0
sg7
I0
sbaasg13
I199
sg14
g6643
sg17
g18
sbsg45
(iobjs
KeyFrame
p6645
(dp6646
g11
(lp6647
(lp6648
I1
aI7
aa(lp6649
I10
aI7
aa(lp6650
I18
aI7
aa(lp6651
I20
aI7
aa(lp6652
F25.600000000000001
aI7
aa(lp6653
F31.100000000000001
aF7.0
aa(lp6654
F36.100000000000001
aI7
aa(lp6655
I39
aI7
aa(lp6656
I43
aI7
aa(lp6657
I50
aI7
aa(lp6658
I54
aI7
aa(lp6659
I61
aF7.0
aa(lp6660
F67.699999999999989
aI7
aa(lp6661
F71.099999999999994
aI7
aa(lp6662
I74
aI7
aa(lp6663
I81
aI7
aa(lp6664
I90
aI7
aa(lp6665
I93
aI7
aa(lp6666
I100
aI7
aa(lp6667
I102
aI7
aa(lp6668
I104
aI7
aa(lp6669
I106
aI7
aa(lp6670
I108
aI7
aa(lp6671
I111
aI7
aa(lp6672
I113
aI7
aa(lp6673
I115
aI7
aa(lp6674
I117
aI7
aa(lp6675
I119
aI7
aa(lp6676
I121
aI7
aa(lp6677
I123
aI7
aa(lp6678
I125
aI7
aa(lp6679
I127
aI7
aa(lp6680
I130
aI7
aa(lp6681
I132
aI7
aa(lp6682
I138
aI7
aa(lp6683
I142
aF7.0
aa(lp6684
I150
aI7
aa(lp6685
I154
aI7
aa(lp6686
I157
aI7
aa(lp6687
I161
aI7
aasg13
I199
sg14
I7
sg17
g18
sbsg49
(iobjs
Texture
p6688
(dp6689
g13
I199
sg52
(dp6690
g63
(iobjs
KeyFrame
p6691
(dp6692
g11
(lp6693
(lp6694
I1
ag67
aa(lp6695
I10
ag67
aa(lp6696
I18
ag67
aa(lp6697
I20
ag67
aa(lp6698
I28
ag67
aa(lp6699
I35
ag67
aa(lp6700
I39
ag67
aa(lp6701
I40
ag67
aa(lp6702
I43
ag67
aa(lp6703
I50
ag67
aa(lp6704
I54
ag67
aa(lp6705
I61
ag67
aa(lp6706
I65
ag67
aa(lp6707
I74
ag67
aa(lp6708
I75
ag67
aa(lp6709
I81
ag67
aa(lp6710
I90
ag67
aa(lp6711
I93
ag67
aa(lp6712
I100
ag67
aa(lp6713
I102
ag67
aa(lp6714
I104
ag67
aa(lp6715
I106
ag67
aa(lp6716
I108
ag67
aa(lp6717
I111
ag67
aa(lp6718
I113
ag67
aa(lp6719
I115
ag67
aa(lp6720
I117
ag67
aa(lp6721
I119
ag67
aa(lp6722
I121
ag67
aa(lp6723
I123
ag67
aa(lp6724
I125
ag67
aa(lp6725
I127
ag67
aa(lp6726
I130
ag67
aa(lp6727
I132
ag67
aa(lp6728
I138
ag67
aa(lp6729
I142
ag67
aa(lp6730
I150
ag67
aa(lp6731
I154
ag67
aa(lp6732
I157
ag67
aa(lp6733
I161
ag67
aasg13
I199
sg14
g67
sg17
g30
sbsg72
(iobjs
KeyFrame
p6734
(dp6735
g11
(lp6736
(lp6737
I1
aI01
aa(lp6738
I10
aI01
aa(lp6739
I18
aI01
aa(lp6740
I20
aI01
aa(lp6741
I28
aI01
aa(lp6742
I35
aI01
aa(lp6743
I39
aI01
aa(lp6744
I40
aI01
aa(lp6745
I43
aI01
aa(lp6746
I50
aI01
aa(lp6747
I54
aI01
aa(lp6748
I61
aI01
aa(lp6749
I65
aI01
aa(lp6750
I74
aI01
aa(lp6751
I75
aI01
aa(lp6752
I81
aI01
aa(lp6753
I90
aI01
aa(lp6754
I93
aI01
aa(lp6755
I100
aI01
aa(lp6756
I102
aI01
aa(lp6757
I104
aI01
aa(lp6758
I106
aI01
aa(lp6759
I108
aI01
aa(lp6760
I111
aI01
aa(lp6761
I113
aI01
aa(lp6762
I115
aI01
aa(lp6763
I117
aI01
aa(lp6764
I119
aI01
aa(lp6765
I121
aI01
aa(lp6766
I123
aI01
aa(lp6767
I125
aI01
aa(lp6768
I127
aI01
aa(lp6769
I130
aI01
aa(lp6770
I132
aI01
aa(lp6771
I138
aI01
aa(lp6772
I142
aI01
aa(lp6773
I150
aI01
aa(lp6774
I154
aI01
aa(lp6775
I157
aI01
aa(lp6776
I161
aI01
aasg13
I199
sg14
I01
sg17
g30
sbsg76
(iobjs
KeyFrame
p6777
(dp6778
g11
(lp6779
(lp6780
I1
aI01
aa(lp6781
I10
aI01
aa(lp6782
I18
aI01
aa(lp6783
I20
aI01
aa(lp6784
I28
aI01
aa(lp6785
I35
aI01
aa(lp6786
I39
aI01
aa(lp6787
I40
aI01
aa(lp6788
I43
aI01
aa(lp6789
I50
aI01
aa(lp6790
I54
aI01
aa(lp6791
I61
aI01
aa(lp6792
I65
aI01
aa(lp6793
I74
aI01
aa(lp6794
I75
aI01
aa(lp6795
I81
aI01
aa(lp6796
I90
aI01
aa(lp6797
I93
aI01
aa(lp6798
I100
aI01
aa(lp6799
I102
aI01
aa(lp6800
I104
aI01
aa(lp6801
I106
aI01
aa(lp6802
I108
aI01
aa(lp6803
I111
aI01
aa(lp6804
I113
aI01
aa(lp6805
I115
aI01
aa(lp6806
I117
aI01
aa(lp6807
I119
aI01
aa(lp6808
I121
aI01
aa(lp6809
I123
aI01
aa(lp6810
I125
aI01
aa(lp6811
I127
aI01
aa(lp6812
I130
aI01
aa(lp6813
I132
aI01
aa(lp6814
I138
aI01
aa(lp6815
I142
aI01
aa(lp6816
I150
aI01
aa(lp6817
I154
aI01
aa(lp6818
I157
aI01
aa(lp6819
I161
aI01
aasg13
I199
sg14
I01
sg17
g30
sbsg49
(iobjs
KeyFrame
p6820
(dp6821
g11
(lp6822
(lp6823
I1
ag57
aa(lp6824
I10
ag57
aa(lp6825
I18
ag57
aa(lp6826
I20
ag57
aa(lp6827
I28
ag57
aa(lp6828
I35
ag57
aa(lp6829
I39
ag57
aa(lp6830
I40
ag57
aa(lp6831
I43
ag57
aa(lp6832
I50
ag57
aa(lp6833
I54
ag57
aa(lp6834
I61
ag57
aa(lp6835
I65
ag57
aa(lp6836
I74
ag57
aa(lp6837
I75
ag57
aa(lp6838
I81
ag57
aa(lp6839
I90
ag57
aa(lp6840
I93
ag57
aa(lp6841
I100
ag57
aa(lp6842
I102
ag57
aa(lp6843
I104
ag57
aa(lp6844
I106
ag57
aa(lp6845
I108
ag57
aa(lp6846
I111
ag57
aa(lp6847
I113
ag57
aa(lp6848
I115
ag57
aa(lp6849
I117
ag57
aa(lp6850
I119
ag57
aa(lp6851
I121
ag57
aa(lp6852
I123
ag57
aa(lp6853
I125
ag57
aa(lp6854
I127
ag57
aa(lp6855
I130
ag57
aa(lp6856
I132
ag57
aa(lp6857
I138
ag57
aa(lp6858
I142
ag57
aa(lp6859
I150
ag57
aa(lp6860
I154
ag57
aa(lp6861
I157
ag57
aa(lp6862
I161
ag57
aasg13
I199
sg14
g57
sg17
g30
sbsg58
(iobjs
KeyFrame
p6863
(dp6864
g11
(lp6865
(lp6866
I1
ag62
aa(lp6867
I10
ag62
aa(lp6868
I18
ag62
aa(lp6869
I20
ag62
aa(lp6870
I28
ag62
aa(lp6871
I35
ag62
aa(lp6872
I39
ag62
aa(lp6873
I40
ag62
aa(lp6874
I43
ag62
aa(lp6875
I50
ag62
aa(lp6876
I54
ag62
aa(lp6877
I61
ag62
aa(lp6878
I65
ag62
aa(lp6879
I74
ag62
aa(lp6880
I75
ag62
aa(lp6881
I81
ag62
aa(lp6882
I90
ag62
aa(lp6883
I93
ag62
aa(lp6884
I100
ag62
aa(lp6885
I102
ag62
aa(lp6886
I104
ag62
aa(lp6887
I106
ag62
aa(lp6888
I108
ag62
aa(lp6889
I111
ag62
aa(lp6890
I113
ag62
aa(lp6891
I115
ag62
aa(lp6892
I117
ag62
aa(lp6893
I119
ag62
aa(lp6894
I121
ag62
aa(lp6895
I123
ag62
aa(lp6896
I125
ag62
aa(lp6897
I127
ag62
aa(lp6898
I130
ag62
aa(lp6899
I132
ag62
aa(lp6900
I138
ag62
aa(lp6901
I142
ag62
aa(lp6902
I150
ag62
aa(lp6903
I154
ag62
aa(lp6904
I157
ag62
aa(lp6905
I161
ag62
aasg13
I199
sg14
g62
sg17
g30
sbsg68
(iobjs
KeyFrame
p6906
(dp6907
g11
(lp6908
(lp6909
I1
aI00
aa(lp6910
I10
aI00
aa(lp6911
I18
aI00
aa(lp6912
I20
aI00
aa(lp6913
I28
aI00
aa(lp6914
I35
aI00
aa(lp6915
I39
aI00
aa(lp6916
I40
aI00
aa(lp6917
I43
aI00
aa(lp6918
I50
aI00
aa(lp6919
I54
aI00
aa(lp6920
I61
aI00
aa(lp6921
I65
aI00
aa(lp6922
I74
aI00
aa(lp6923
I75
aI00
aa(lp6924
I81
aI00
aa(lp6925
I90
aI00
aa(lp6926
I93
aI00
aa(lp6927
I100
aI00
aa(lp6928
I102
aI00
aa(lp6929
I104
aI00
aa(lp6930
I106
aI00
aa(lp6931
I108
aI00
aa(lp6932
I111
aI00
aa(lp6933
I113
aI00
aa(lp6934
I115
aI00
aa(lp6935
I117
aI00
aa(lp6936
I119
aI00
aa(lp6937
I121
aI00
aa(lp6938
I123
aI00
aa(lp6939
I125
aI00
aa(lp6940
I127
aI00
aa(lp6941
I130
aI00
aa(lp6942
I132
aI00
aa(lp6943
I138
aI00
aa(lp6944
I142
aI00
aa(lp6945
I150
aI00
aa(lp6946
I154
aI00
aa(lp6947
I157
aI00
aa(lp6948
I161
aI00
aasg13
I199
sg14
I00
sg17
g30
sbssg80
(dp6949
g63
g82
sg68
g83
sg72
g84
sg58
g85
sg76
g86
ssbsg87
(iobjs
KeyFrame
p6950
(dp6951
g11
(lp6952
(lp6953
I1
aI0
aa(lp6954
I10
aI0
aa(lp6955
I18
aF48.608555350348169
aa(lp6956
I20
aF67.832627311144677
aa(lp6957
F25.600000000000001
aF5.3232262551599092
aa(lp6958
F31.100000000000001
aF12.127665182034264
aa(lp6959
F36.100000000000001
aF25.880908079332386
aa(lp6960
I39
aF-12.057561951437435
aa(lp6961
I43
aF-50.838644261030367
aa(lp6962
I50
aF-36.768112078085665
aa(lp6963
I54
aF-114.32223546705706
aa(lp6964
I61
aF-43.677491983522941
aa(lp6965
F67.699999999999989
aF-14.1418617202728
aa(lp6966
F71.099999999999994
aF-35.695226057038496
aa(lp6967
I74
aF-35.695226057038496
aa(lp6968
I81
aF-35.695226057038496
aa(lp6969
I90
aF-35.695226057038496
aa(lp6970
I93
aF44.209055611091799
aa(lp6971
I100
aF80.278693956182678
aa(lp6972
I102
aF66.743744868676401
aa(lp6973
I104
aF42.768274884637492
aa(lp6974
I106
aF-1.093995113308381
aa(lp6975
I108
aF39.346652949954205
aa(lp6976
I111
aF19.090939388147035
aa(lp6977
I113
aF32.835491914941684
aa(lp6978
I115
aF-3.6081930378783937
aa(lp6979
I117
aF-3.6081930378783937
aa(lp6980
I119
aF-30.011604960437253
aa(lp6981
I121
aF-52.936258236125596
aa(lp6982
I123
aF-39.387723801405699
aa(lp6983
I125
aF-0.69780938740389331
aa(lp6984
I127
aF14.691021155478722
aa(lp6985
I130
aF-5.8164395101040611
aa(lp6986
I132
aF-5.8164395101040611
aa(lp6987
I138
aF-5.8164395101040611
aa(lp6988
I142
aF-6.3353638575784146
aa(lp6989
I150
aF-7.3732125525271215
aa(lp6990
I154
aF-28.128923825749808
aa(lp6991
I157
aF-13.926034631532417
aa(lp6992
I161
aF0.0
aasg13
I199
sg14
F0.0
sg17
g18
sbsg91
(iobjs
KeyFrame
p6993
(dp6994
g11
(lp6995
(lp6996
I1
aI00
aa(lp6997
I10
aI00
aa(lp6998
I18
aI00
aa(lp6999
I20
aI00
aa(lp7000
F25.600000000000001
aI00
aa(lp7001
F31.100000000000001
aI00
aa(lp7002
F36.100000000000001
aI00
aa(lp7003
I39
aI00
aa(lp7004
I43
aI00
aa(lp7005
I50
aI00
aa(lp7006
I54
aI00
aa(lp7007
I61
aI00
aa(lp7008
F67.699999999999989
aI00
aa(lp7009
F71.099999999999994
aI00
aa(lp7010
I74
aI00
aa(lp7011
I81
aI00
aa(lp7012
I90
aI00
aa(lp7013
I93
aI00
aa(lp7014
I100
aI00
aa(lp7015
I102
aI00
aa(lp7016
I104
aI00
aa(lp7017
I106
aI00
aa(lp7018
I108
aI00
aa(lp7019
I111
aI00
aa(lp7020
I113
aI00
aa(lp7021
I115
aI00
aa(lp7022
I117
aI00
aa(lp7023
I119
aI00
aa(lp7024
I121
aI00
aa(lp7025
I123
aI00
aa(lp7026
I125
aI00
aa(lp7027
I127
aI00
aa(lp7028
I130
aI00
aa(lp7029
I132
aI00
aa(lp7030
I138
aI00
aa(lp7031
I142
aI00
aa(lp7032
I150
aI00
aa(lp7033
I154
aI00
aa(lp7034
I157
aI00
aa(lp7035
I161
aI00
aasg13
I199
sg14
I00
sg17
g30
sbsg95
(iobjs
KeyFrame
p7036
(dp7037
g11
(lp7038
(lp7039
I1
aI00
aa(lp7040
I10
aI00
aa(lp7041
I18
aI00
aa(lp7042
I20
aI00
aa(lp7043
F25.600000000000001
aI00
aa(lp7044
F31.100000000000001
aI00
aa(lp7045
F36.100000000000001
aI00
aa(lp7046
I39
aI00
aa(lp7047
I43
aI00
aa(lp7048
I50
aI00
aa(lp7049
I54
aI00
aa(lp7050
I61
aI00
aa(lp7051
F67.699999999999989
aI00
aa(lp7052
F71.099999999999994
aI00
aa(lp7053
I74
aI00
aa(lp7054
I81
aI00
aa(lp7055
I90
aI00
aa(lp7056
I93
aI00
aa(lp7057
I100
aI00
aa(lp7058
I102
aI00
aa(lp7059
I104
aI00
aa(lp7060
I106
aI00
aa(lp7061
I108
aI00
aa(lp7062
I111
aI00
aa(lp7063
I113
aI00
aa(lp7064
I115
aI00
aa(lp7065
I117
aI00
aa(lp7066
I119
aI00
aa(lp7067
I121
aI00
aa(lp7068
I123
aI00
aa(lp7069
I125
aI00
aa(lp7070
I127
aI00
aa(lp7071
I130
aI00
aa(lp7072
I132
aI00
aa(lp7073
I138
aI00
aa(lp7074
I142
aI00
aa(lp7075
I150
aI00
aa(lp7076
I154
aI00
aa(lp7077
I157
aI00
aa(lp7078
I161
aI00
aasg13
I199
sg14
I00
sg17
g30
sbsg99
(lp7079
sasa(dp7080
g26
(iobjs
KeyFrame
p7081
(dp7082
g11
(lp7083
(lp7084
I1
aI00
aa(lp7085
I10
aI00
aa(lp7086
I18
aI00
aa(lp7087
I20
aI00
aa(lp7088
F25.600000000000001
aI00
aa(lp7089
F31.100000000000001
aI00
aa(lp7090
F36.100000000000001
aI00
aa(lp7091
I39
aI00
aa(lp7092
I43
aI00
aa(lp7093
I50
aI00
aa(lp7094
I54
aI00
aa(lp7095
I61
aI00
aa(lp7096
F67.699999999999989
aI00
aa(lp7097
F71.099999999999994
aI00
aa(lp7098
I74
aI00
aa(lp7099
I81
aI00
aa(lp7100
I90
aI00
aa(lp7101
I93
aI00
aa(lp7102
I100
aI00
aa(lp7103
I102
aI00
aa(lp7104
I104
aI00
aa(lp7105
I106
aI00
aa(lp7106
I108
aI00
aa(lp7107
I111
aI00
aa(lp7108
I113
aI00
aa(lp7109
I115
aI00
aa(lp7110
I117
aI00
aa(lp7111
I119
aI00
aa(lp7112
I121
aI00
aa(lp7113
I123
aI00
aa(lp7114
I125
aI00
aa(lp7115
I127
aI00
aa(lp7116
I130
aI00
aa(lp7117
I132
aI00
aa(lp7118
I138
aI00
aa(lp7119
I142
aI00
aa(lp7120
I150
aI00
aa(lp7121
I154
aI00
aa(lp7122
I157
aI00
aa(lp7123
I161
aI00
aasg13
I199
sg14
I00
sg17
g30
sbsg31
(iobjs
KeyFrame
p7124
(dp7125
g11
(lp7126
(lp7127
I1
aI50
aa(lp7128
I10
aI50
aa(lp7129
I18
aI50
aa(lp7130
I20
aI50
aa(lp7131
F25.600000000000001
aI50
aa(lp7132
F31.100000000000001
aF50.0
aa(lp7133
F36.100000000000001
aI50
aa(lp7134
I39
aI50
aa(lp7135
I43
aI50
aa(lp7136
I50
aI50
aa(lp7137
I54
aI50
aa(lp7138
I61
aF50.0
aa(lp7139
F67.699999999999989
aI50
aa(lp7140
F71.099999999999994
aI50
aa(lp7141
I74
aI50
aa(lp7142
I81
aI50
aa(lp7143
I90
aI50
aa(lp7144
I93
aI50
aa(lp7145
I100
aI50
aa(lp7146
I102
aI50
aa(lp7147
I104
aI50
aa(lp7148
I106
aI50
aa(lp7149
I108
aI50
aa(lp7150
I111
aI50
aa(lp7151
I113
aI50
aa(lp7152
I115
aI50
aa(lp7153
I117
aI50
aa(lp7154
I119
aI50
aa(lp7155
I121
aI50
aa(lp7156
I123
aI50
aa(lp7157
I125
aI50
aa(lp7158
I127
aI50
aa(lp7159
I130
aI50
aa(lp7160
I132
aI50
aa(lp7161
I138
aI50
aa(lp7162
I142
aF50.0
aa(lp7163
I150
aI50
aa(lp7164
I154
aI50
aa(lp7165
I157
aI50
aa(lp7166
I161
aI50
aasg13
I199
sg14
I50
sg17
g18
sbsg35
(iobjs
KeyFrame
p7167
(dp7168
g11
(lp7169
(lp7170
I1
a(lp7171
I0
aI0
aI0
aaa(lp7172
I10
a(lp7173
I0
aI0
aI0
aaa(lp7174
I18
a(lp7175
I0
aI0
aI0
aaa(lp7176
I20
a(lp7177
I0
aI0
aI0
aaa(lp7178
F25.600000000000001
a(lp7179
I0
aI0
aI0
aaa(lp7180
F31.100000000000001
a(lp7181
F0.0
aF0.0
aF0.0
aaa(lp7182
F36.100000000000001
a(lp7183
I0
aI0
aI0
aaa(lp7184
I39
a(lp7185
I0
aI0
aI0
aaa(lp7186
I43
a(lp7187
I0
aI0
aI0
aaa(lp7188
I50
a(lp7189
I0
aI0
aI0
aaa(lp7190
I54
a(lp7191
I0
aI0
aI0
aaa(lp7192
I61
a(lp7193
F0.0
aF0.0
aF0.0
aaa(lp7194
F67.699999999999989
a(lp7195
I0
aI0
aI0
aaa(lp7196
F71.099999999999994
a(lp7197
I0
aI0
aI0
aaa(lp7198
I74
a(lp7199
I0
aI0
aI0
aaa(lp7200
I81
a(lp7201
I0
aI0
aI0
aaa(lp7202
I90
a(lp7203
I0
aI0
aI0
aaa(lp7204
I93
a(lp7205
I0
aI0
aI0
aaa(lp7206
I100
a(lp7207
I0
aI0
aI0
aaa(lp7208
I102
a(lp7209
I0
aI0
aI0
aaa(lp7210
I104
a(lp7211
I0
aI0
aI0
aaa(lp7212
I106
a(lp7213
I0
aI0
aI0
aaa(lp7214
I108
a(lp7215
I0
aI0
aI0
aaa(lp7216
I111
a(lp7217
I0
aI0
aI0
aaa(lp7218
I113
a(lp7219
I0
aI0
aI0
aaa(lp7220
I115
a(lp7221
I0
aI0
aI0
aaa(lp7222
I117
a(lp7223
I0
aI0
aI0
aaa(lp7224
I119
a(lp7225
I0
aI0
aI0
aaa(lp7226
I121
a(lp7227
I0
aI0
aI0
aaa(lp7228
I123
a(lp7229
I0
aI0
aI0
aaa(lp7230
I125
a(lp7231
I0
aI0
aI0
aaa(lp7232
I127
a(lp7233
I0
aI0
aI0
aaa(lp7234
I130
a(lp7235
I0
aI0
aI0
aaa(lp7236
I132
a(lp7237
I0
aI0
aI0
aaa(lp7238
I138
a(lp7239
I0
aI0
aI0
aaa(lp7240
I142
a(lp7241
F0.0
aF0.0
aF0.0
aaa(lp7242
I150
a(lp7243
I0
aI0
aI0
aaa(lp7244
I154
a(lp7245
I0
aI0
aI0
aaa(lp7246
I157
a(lp7247
I0
aI0
aI0
aaa(lp7248
I161
a(lp7249
I0
aI0
aI0
aaasg13
I199
sg14
g7249
sg17
g18
sbsg8
(iobjs
KeyFrame
p7250
(dp7251
g11
(lp7252
(lp7253
I1
a(iobjs
Vector
p7254
(dp7255
g6
I0
sg7
I0
sbaa(lp7256
I10
a(iobjs
Vector
p7257
(dp7258
g6
I0
sg7
I0
sbaa(lp7259
I18
a(iobjs
Vector
p7260
(dp7261
g6
I0
sg7
I0
sbaa(lp7262
I20
a(iobjs
Vector
p7263
(dp7264
g6
I0
sg7
I0
sbaa(lp7265
F25.600000000000001
a(iobjs
Vector
p7266
(dp7267
g6
I0
sg7
I0
sbaa(lp7268
F31.100000000000001
a(lp7269
F0.0
aF0.0
aaa(lp7270
F36.100000000000001
a(iobjs
Vector
p7271
(dp7272
g6
I0
sg7
I0
sbaa(lp7273
I39
a(iobjs
Vector
p7274
(dp7275
g6
I0
sg7
I0
sbaa(lp7276
I43
a(iobjs
Vector
p7277
(dp7278
g6
I0
sg7
I0
sbaa(lp7279
I50
a(iobjs
Vector
p7280
(dp7281
g6
I0
sg7
I0
sbaa(lp7282
I54
a(iobjs
Vector
p7283
(dp7284
g6
I0
sg7
I0
sbaa(lp7285
I61
a(lp7286
F0.0
aF0.0
aaa(lp7287
F67.699999999999989
a(iobjs
Vector
p7288
(dp7289
g6
I0
sg7
I0
sbaa(lp7290
F71.099999999999994
a(iobjs
Vector
p7291
(dp7292
g6
I0
sg7
I0
sbaa(lp7293
I74
a(iobjs
Vector
p7294
(dp7295
g6
I0
sg7
I0
sbaa(lp7296
I81
a(iobjs
Vector
p7297
(dp7298
g6
I0
sg7
I0
sbaa(lp7299
I90
a(iobjs
Vector
p7300
(dp7301
g6
I0
sg7
I0
sbaa(lp7302
I93
a(iobjs
Vector
p7303
(dp7304
g6
I0
sg7
I0
sbaa(lp7305
I100
a(iobjs
Vector
p7306
(dp7307
g6
I0
sg7
I0
sbaa(lp7308
I102
a(iobjs
Vector
p7309
(dp7310
g6
I0
sg7
I0
sbaa(lp7311
I104
a(iobjs
Vector
p7312
(dp7313
g6
I0
sg7
I0
sbaa(lp7314
I106
a(iobjs
Vector
p7315
(dp7316
g6
I0
sg7
I0
sbaa(lp7317
I108
a(iobjs
Vector
p7318
(dp7319
g6
I0
sg7
I0
sbaa(lp7320
I111
a(iobjs
Vector
p7321
(dp7322
g6
I0
sg7
I0
sbaa(lp7323
I113
a(iobjs
Vector
p7324
(dp7325
g6
I0
sg7
I0
sbaa(lp7326
I115
a(iobjs
Vector
p7327
(dp7328
g6
I0
sg7
I0
sbaa(lp7329
I117
a(iobjs
Vector
p7330
(dp7331
g6
I0
sg7
I0
sbaa(lp7332
I119
a(iobjs
Vector
p7333
(dp7334
g6
I0
sg7
I0
sbaa(lp7335
I121
a(iobjs
Vector
p7336
(dp7337
g6
I0
sg7
I0
sbaa(lp7338
I123
a(iobjs
Vector
p7339
(dp7340
g6
I0
sg7
I0
sbaa(lp7341
I125
a(iobjs
Vector
p7342
(dp7343
g6
I0
sg7
I0
sbaa(lp7344
I127
a(iobjs
Vector
p7345
(dp7346
g6
I0
sg7
I0
sbaa(lp7347
I130
a(iobjs
Vector
p7348
(dp7349
g6
I0
sg7
I0
sbaa(lp7350
I132
a(iobjs
Vector
p7351
(dp7352
g6
I0
sg7
I0
sbaa(lp7353
I138
a(iobjs
Vector
p7354
(dp7355
g6
I0
sg7
I0
sbaa(lp7356
I142
a(lp7357
F0.0
aF0.0
aaa(lp7358
I150
a(iobjs
Vector
p7359
(dp7360
g6
I0
sg7
I0
sbaa(lp7361
I154
a(iobjs
Vector
p7362
(dp7363
g6
I0
sg7
I0
sbaa(lp7364
I157
a(iobjs
Vector
p7365
(dp7366
g6
I0
sg7
I0
sbaa(lp7367
I161
a(iobjs
Vector
p7368
(dp7369
g6
I0
sg7
I0
sbaasg13
I199
sg14
g7368
sg17
g18
sbsg45
(iobjs
KeyFrame
p7370
(dp7371
g11
(lp7372
(lp7373
I1
aI7
aa(lp7374
I10
aI7
aa(lp7375
I18
aI7
aa(lp7376
I20
aI7
aa(lp7377
F25.600000000000001
aI7
aa(lp7378
F31.100000000000001
aF7.0
aa(lp7379
F36.100000000000001
aI7
aa(lp7380
I39
aI7
aa(lp7381
I43
aI7
aa(lp7382
I50
aI7
aa(lp7383
I54
aI7
aa(lp7384
I61
aF7.0
aa(lp7385
F67.699999999999989
aI7
aa(lp7386
F71.099999999999994
aI7
aa(lp7387
I74
aI7
aa(lp7388
I81
aI7
aa(lp7389
I90
aI7
aa(lp7390
I93
aI7
aa(lp7391
I100
aI7
aa(lp7392
I102
aI7
aa(lp7393
I104
aI7
aa(lp7394
I106
aI7
aa(lp7395
I108
aI7
aa(lp7396
I111
aI7
aa(lp7397
I113
aI7
aa(lp7398
I115
aI7
aa(lp7399
I117
aI7
aa(lp7400
I119
aI7
aa(lp7401
I121
aI7
aa(lp7402
I123
aI7
aa(lp7403
I125
aI7
aa(lp7404
I127
aI7
aa(lp7405
I130
aI7
aa(lp7406
I132
aI7
aa(lp7407
I138
aI7
aa(lp7408
I142
aF7.0
aa(lp7409
I150
aI7
aa(lp7410
I154
aI7
aa(lp7411
I157
aI7
aa(lp7412
I161
aI7
aasg13
I199
sg14
I7
sg17
g18
sbsg49
(iobjs
Texture
p7413
(dp7414
g13
I199
sg52
(dp7415
g63
(iobjs
KeyFrame
p7416
(dp7417
g11
(lp7418
(lp7419
I1
ag67
aa(lp7420
I10
ag67
aa(lp7421
I18
ag67
aa(lp7422
I20
ag67
aa(lp7423
I28
ag67
aa(lp7424
I35
ag67
aa(lp7425
I39
ag67
aa(lp7426
I40
ag67
aa(lp7427
I43
ag67
aa(lp7428
I50
ag67
aa(lp7429
I54
ag67
aa(lp7430
I61
ag67
aa(lp7431
I65
ag67
aa(lp7432
I74
ag67
aa(lp7433
I75
ag67
aa(lp7434
I81
ag67
aa(lp7435
I90
ag67
aa(lp7436
I93
ag67
aa(lp7437
I100
ag67
aa(lp7438
I102
ag67
aa(lp7439
I104
ag67
aa(lp7440
I106
ag67
aa(lp7441
I108
ag67
aa(lp7442
I111
ag67
aa(lp7443
I113
ag67
aa(lp7444
I115
ag67
aa(lp7445
I117
ag67
aa(lp7446
I119
ag67
aa(lp7447
I121
ag67
aa(lp7448
I123
ag67
aa(lp7449
I125
ag67
aa(lp7450
I127
ag67
aa(lp7451
I130
ag67
aa(lp7452
I132
ag67
aa(lp7453
I138
ag67
aa(lp7454
I142
ag67
aa(lp7455
I150
ag67
aa(lp7456
I154
ag67
aa(lp7457
I157
ag67
aa(lp7458
I161
ag67
aasg13
I199
sg14
g67
sg17
g30
sbsg72
(iobjs
KeyFrame
p7459
(dp7460
g11
(lp7461
(lp7462
I1
aI01
aa(lp7463
I10
aI01
aa(lp7464
I18
aI01
aa(lp7465
I20
aI01
aa(lp7466
I28
aI01
aa(lp7467
I35
aI01
aa(lp7468
I39
aI01
aa(lp7469
I40
aI01
aa(lp7470
I43
aI01
aa(lp7471
I50
aI01
aa(lp7472
I54
aI01
aa(lp7473
I61
aI01
aa(lp7474
I65
aI01
aa(lp7475
I74
aI01
aa(lp7476
I75
aI01
aa(lp7477
I81
aI01
aa(lp7478
I90
aI01
aa(lp7479
I93
aI01
aa(lp7480
I100
aI01
aa(lp7481
I102
aI01
aa(lp7482
I104
aI01
aa(lp7483
I106
aI01
aa(lp7484
I108
aI01
aa(lp7485
I111
aI01
aa(lp7486
I113
aI01
aa(lp7487
I115
aI01
aa(lp7488
I117
aI01
aa(lp7489
I119
aI01
aa(lp7490
I121
aI01
aa(lp7491
I123
aI01
aa(lp7492
I125
aI01
aa(lp7493
I127
aI01
aa(lp7494
I130
aI01
aa(lp7495
I132
aI01
aa(lp7496
I138
aI01
aa(lp7497
I142
aI01
aa(lp7498
I150
aI01
aa(lp7499
I154
aI01
aa(lp7500
I157
aI01
aa(lp7501
I161
aI01
aasg13
I199
sg14
I01
sg17
g30
sbsg76
(iobjs
KeyFrame
p7502
(dp7503
g11
(lp7504
(lp7505
I1
aI01
aa(lp7506
I10
aI01
aa(lp7507
I18
aI01
aa(lp7508
I20
aI01
aa(lp7509
I28
aI01
aa(lp7510
I35
aI01
aa(lp7511
I39
aI01
aa(lp7512
I40
aI01
aa(lp7513
I43
aI01
aa(lp7514
I50
aI01
aa(lp7515
I54
aI01
aa(lp7516
I61
aI01
aa(lp7517
I65
aI01
aa(lp7518
I74
aI01
aa(lp7519
I75
aI01
aa(lp7520
I81
aI01
aa(lp7521
I90
aI01
aa(lp7522
I93
aI01
aa(lp7523
I100
aI01
aa(lp7524
I102
aI01
aa(lp7525
I104
aI01
aa(lp7526
I106
aI01
aa(lp7527
I108
aI01
aa(lp7528
I111
aI01
aa(lp7529
I113
aI01
aa(lp7530
I115
aI01
aa(lp7531
I117
aI01
aa(lp7532
I119
aI01
aa(lp7533
I121
aI01
aa(lp7534
I123
aI01
aa(lp7535
I125
aI01
aa(lp7536
I127
aI01
aa(lp7537
I130
aI01
aa(lp7538
I132
aI01
aa(lp7539
I138
aI01
aa(lp7540
I142
aI01
aa(lp7541
I150
aI01
aa(lp7542
I154
aI01
aa(lp7543
I157
aI01
aa(lp7544
I161
aI01
aasg13
I199
sg14
I01
sg17
g30
sbsg49
(iobjs
KeyFrame
p7545
(dp7546
g11
(lp7547
(lp7548
I1
ag57
aa(lp7549
I10
ag57
aa(lp7550
I18
ag57
aa(lp7551
I20
ag57
aa(lp7552
I28
ag57
aa(lp7553
I35
ag57
aa(lp7554
I39
ag57
aa(lp7555
I40
ag57
aa(lp7556
I43
ag57
aa(lp7557
I50
ag57
aa(lp7558
I54
ag57
aa(lp7559
I61
ag57
aa(lp7560
I65
ag57
aa(lp7561
I74
ag57
aa(lp7562
I75
ag57
aa(lp7563
I81
ag57
aa(lp7564
I90
ag57
aa(lp7565
I93
ag57
aa(lp7566
I100
ag57
aa(lp7567
I102
ag57
aa(lp7568
I104
ag57
aa(lp7569
I106
ag57
aa(lp7570
I108
ag57
aa(lp7571
I111
ag57
aa(lp7572
I113
ag57
aa(lp7573
I115
ag57
aa(lp7574
I117
ag57
aa(lp7575
I119
ag57
aa(lp7576
I121
ag57
aa(lp7577
I123
ag57
aa(lp7578
I125
ag57
aa(lp7579
I127
ag57
aa(lp7580
I130
ag57
aa(lp7581
I132
ag57
aa(lp7582
I138
ag57
aa(lp7583
I142
ag57
aa(lp7584
I150
ag57
aa(lp7585
I154
ag57
aa(lp7586
I157
ag57
aa(lp7587
I161
ag57
aasg13
I199
sg14
g57
sg17
g30
sbsg58
(iobjs
KeyFrame
p7588
(dp7589
g11
(lp7590
(lp7591
I1
ag62
aa(lp7592
I10
ag62
aa(lp7593
I18
ag62
aa(lp7594
I20
ag62
aa(lp7595
I28
ag62
aa(lp7596
I35
ag62
aa(lp7597
I39
ag62
aa(lp7598
I40
ag62
aa(lp7599
I43
ag62
aa(lp7600
I50
ag62
aa(lp7601
I54
ag62
aa(lp7602
I61
ag62
aa(lp7603
I65
ag62
aa(lp7604
I74
ag62
aa(lp7605
I75
ag62
aa(lp7606
I81
ag62
aa(lp7607
I90
ag62
aa(lp7608
I93
ag62
aa(lp7609
I100
ag62
aa(lp7610
I102
ag62
aa(lp7611
I104
ag62
aa(lp7612
I106
ag62
aa(lp7613
I108
ag62
aa(lp7614
I111
ag62
aa(lp7615
I113
ag62
aa(lp7616
I115
ag62
aa(lp7617
I117
ag62
aa(lp7618
I119
ag62
aa(lp7619
I121
ag62
aa(lp7620
I123
ag62
aa(lp7621
I125
ag62
aa(lp7622
I127
ag62
aa(lp7623
I130
ag62
aa(lp7624
I132
ag62
aa(lp7625
I138
ag62
aa(lp7626
I142
ag62
aa(lp7627
I150
ag62
aa(lp7628
I154
ag62
aa(lp7629
I157
ag62
aa(lp7630
I161
ag62
aasg13
I199
sg14
g62
sg17
g30
sbsg68
(iobjs
KeyFrame
p7631
(dp7632
g11
(lp7633
(lp7634
I1
aI00
aa(lp7635
I10
aI00
aa(lp7636
I18
aI00
aa(lp7637
I20
aI00
aa(lp7638
I28
aI00
aa(lp7639
I35
aI00
aa(lp7640
I39
aI00
aa(lp7641
I40
aI00
aa(lp7642
I43
aI00
aa(lp7643
I50
aI00
aa(lp7644
I54
aI00
aa(lp7645
I61
aI00
aa(lp7646
I65
aI00
aa(lp7647
I74
aI00
aa(lp7648
I75
aI00
aa(lp7649
I81
aI00
aa(lp7650
I90
aI00
aa(lp7651
I93
aI00
aa(lp7652
I100
aI00
aa(lp7653
I102
aI00
aa(lp7654
I104
aI00
aa(lp7655
I106
aI00
aa(lp7656
I108
aI00
aa(lp7657
I111
aI00
aa(lp7658
I113
aI00
aa(lp7659
I115
aI00
aa(lp7660
I117
aI00
aa(lp7661
I119
aI00
aa(lp7662
I121
aI00
aa(lp7663
I123
aI00
aa(lp7664
I125
aI00
aa(lp7665
I127
aI00
aa(lp7666
I130
aI00
aa(lp7667
I132
aI00
aa(lp7668
I138
aI00
aa(lp7669
I142
aI00
aa(lp7670
I150
aI00
aa(lp7671
I154
aI00
aa(lp7672
I157
aI00
aa(lp7673
I161
aI00
aasg13
I199
sg14
I00
sg17
g30
sbssg80
(dp7674
g63
g82
sg68
g83
sg72
g84
sg58
g85
sg76
g86
ssbsg87
(iobjs
KeyFrame
p7675
(dp7676
g11
(lp7677
(lp7678
I1
aI113
aa(lp7679
I10
aI113
aa(lp7680
I18
aF94.513988458001251
aa(lp7681
I20
aF82.116860683270261
aa(lp7682
F25.600000000000001
aF144.40531150095691
aa(lp7683
F31.100000000000001
aF118.16552133880793
aa(lp7684
F36.100000000000001
aF-65.095231191904801
aa(lp7685
I39
aF-70.851862542060402
aa(lp7686
I43
aF-53.673174047879726
aa(lp7687
I50
aF-275.33215888165955
aa(lp7688
I54
aF-309.61068824002666
aa(lp7689
I61
aF-329.16216805531275
aa(lp7690
F67.699999999999989
aF-326.72511201516511
aa(lp7691
F71.099999999999994
aF-238.60054251665875
aa(lp7692
I74
aF-266.18592516570965
aa(lp7693
I81
aF-255.57922687248902
aa(lp7694
I90
aF-246.90317808183917
aa(lp7695
I93
aF-242.0628571734614
aa(lp7696
I100
aF-222.16588898369349
aa(lp7697
I102
aF-253.37924308610795
aa(lp7698
I104
aF-269.31793960682734
aa(lp7699
I106
aF-301.42956561483851
aa(lp7700
I108
aF-337.13549187810031
aa(lp7701
I111
aF-354.93638314696989
aa(lp7702
I113
aF-363.13635836833259
aa(lp7703
I115
aF-369.90418321297386
aa(lp7704
I117
aF-355.30131948270053
aa(lp7705
I119
aF-343.52311860631204
aa(lp7706
I121
aF-321.92721812600911
aa(lp7707
I123
aF-307.74680538727466
aa(lp7708
I125
aF-293.19859051364818
aa(lp7709
I127
aF-273.57633437499737
aa(lp7710
I130
aF-272.26050191114126
aa(lp7711
I132
aF-273.97249594075066
aa(lp7712
I138
aF-273.97249594075066
aa(lp7713
I142
aF-282.76274692191362
aa(lp7714
I150
aF-300.34324888423959
aa(lp7715
I154
aF-309.80557109226521
aa(lp7716
I157
aF-299.67308211207785
aa(lp7717
I161
aF-293.0
aasg13
I199
sg14
F-293.0
sg17
g18
sbsg91
(iobjs
KeyFrame
p7718
(dp7719
g11
(lp7720
(lp7721
I1
aI00
aa(lp7722
I10
aI00
aa(lp7723
I18
aI00
aa(lp7724
I20
aI00
aa(lp7725
F25.600000000000001
aI00
aa(lp7726
F31.100000000000001
aI00
aa(lp7727
F36.100000000000001
aI00
aa(lp7728
I39
aI00
aa(lp7729
I43
aI00
aa(lp7730
I50
aI00
aa(lp7731
I54
aI00
aa(lp7732
I61
aI00
aa(lp7733
F67.699999999999989
aI00
aa(lp7734
F71.099999999999994
aI00
aa(lp7735
I74
aI00
aa(lp7736
I81
aI00
aa(lp7737
I90
aI00
aa(lp7738
I93
aI00
aa(lp7739
I100
aI00
aa(lp7740
I102
aI00
aa(lp7741
I104
aI00
aa(lp7742
I106
aI00
aa(lp7743
I108
aI00
aa(lp7744
I111
aI00
aa(lp7745
I113
aI00
aa(lp7746
I115
aI00
aa(lp7747
I117
aI00
aa(lp7748
I119
aI00
aa(lp7749
I121
aI00
aa(lp7750
I123
aI00
aa(lp7751
I125
aI00
aa(lp7752
I127
aI00
aa(lp7753
I130
aI00
aa(lp7754
I132
aI00
aa(lp7755
I138
aI00
aa(lp7756
I142
aI00
aa(lp7757
I150
aI00
aa(lp7758
I154
aI00
aa(lp7759
I157
aI00
aa(lp7760
I161
aI00
aasg13
I199
sg14
I00
sg17
g30
sbsg95
(iobjs
KeyFrame
p7761
(dp7762
g11
(lp7763
(lp7764
I1
aI00
aa(lp7765
I10
aI00
aa(lp7766
I18
aI00
aa(lp7767
I20
aI00
aa(lp7768
F25.600000000000001
aI00
aa(lp7769
F31.100000000000001
aI00
aa(lp7770
F36.100000000000001
aI00
aa(lp7771
I39
aI00
aa(lp7772
I43
aI00
aa(lp7773
I50
aI00
aa(lp7774
I54
aI00
aa(lp7775
I61
aI00
aa(lp7776
F67.699999999999989
aI00
aa(lp7777
F71.099999999999994
aI00
aa(lp7778
I74
aI00
aa(lp7779
I81
aI00
aa(lp7780
I90
aI00
aa(lp7781
I93
aI00
aa(lp7782
I100
aI00
aa(lp7783
I102
aI00
aa(lp7784
I104
aI00
aa(lp7785
I106
aI00
aa(lp7786
I108
aI00
aa(lp7787
I111
aI00
aa(lp7788
I113
aI00
aa(lp7789
I115
aI00
aa(lp7790
I117
aI00
aa(lp7791
I119
aI00
aa(lp7792
I121
aI00
aa(lp7793
I123
aI00
aa(lp7794
I125
aI00
aa(lp7795
I127
aI00
aa(lp7796
I130
aI00
aa(lp7797
I132
aI00
aa(lp7798
I138
aI00
aa(lp7799
I142
aI00
aa(lp7800
I150
aI00
aa(lp7801
I154
aI00
aa(lp7802
I157
aI00
aa(lp7803
I161
aI00
aasg13
I199
sg14
I00
sg17
g30
sbsg99
(lp7804
(dp7805
g26
(iobjs
KeyFrame
p7806
(dp7807
g11
(lp7808
(lp7809
I1
aI00
aa(lp7810
I10
aI00
aa(lp7811
I18
aI00
aa(lp7812
I20
aI00
aa(lp7813
F25.600000000000001
aI00
aa(lp7814
F31.100000000000001
aI00
aa(lp7815
F36.100000000000001
aI00
aa(lp7816
I39
aI00
aa(lp7817
I43
aI00
aa(lp7818
I50
aI00
aa(lp7819
I54
aI00
aa(lp7820
I61
aI00
aa(lp7821
F67.699999999999989
aI00
aa(lp7822
F71.099999999999994
aI00
aa(lp7823
I74
aI00
aa(lp7824
I81
aI00
aa(lp7825
I90
aI00
aa(lp7826
I93
aI00
aa(lp7827
I100
aI00
aa(lp7828
I102
aI00
aa(lp7829
I104
aI00
aa(lp7830
I106
aI00
aa(lp7831
I108
aI00
aa(lp7832
I111
aI00
aa(lp7833
I113
aI00
aa(lp7834
I115
aI00
aa(lp7835
I117
aI00
aa(lp7836
I119
aI00
aa(lp7837
I121
aI00
aa(lp7838
I123
aI00
aa(lp7839
I125
aI00
aa(lp7840
I127
aI00
aa(lp7841
I130
aI00
aa(lp7842
I132
aI00
aa(lp7843
I138
aI00
aa(lp7844
I142
aI00
aa(lp7845
I150
aI00
aa(lp7846
I154
aI00
aa(lp7847
I157
aI00
aa(lp7848
I161
aI00
aasg13
I199
sg14
I00
sg17
g30
sbsg31
(iobjs
KeyFrame
p7849
(dp7850
g11
(lp7851
(lp7852
I1
aI50
aa(lp7853
I10
aI50
aa(lp7854
I18
aI50
aa(lp7855
I20
aI50
aa(lp7856
F25.600000000000001
aI50
aa(lp7857
F31.100000000000001
aF50.0
aa(lp7858
F36.100000000000001
aI50
aa(lp7859
I39
aI50
aa(lp7860
I43
aI50
aa(lp7861
I50
aI50
aa(lp7862
I54
aI50
aa(lp7863
I61
aF50.0
aa(lp7864
F67.699999999999989
aI50
aa(lp7865
F71.099999999999994
aI50
aa(lp7866
I74
aI50
aa(lp7867
I81
aI50
aa(lp7868
I90
aI50
aa(lp7869
I93
aI50
aa(lp7870
I100
aI50
aa(lp7871
I102
aI50
aa(lp7872
I104
aI50
aa(lp7873
I106
aI50
aa(lp7874
I108
aI50
aa(lp7875
I111
aI50
aa(lp7876
I113
aI50
aa(lp7877
I115
aI50
aa(lp7878
I117
aI50
aa(lp7879
I119
aI50
aa(lp7880
I121
aI50
aa(lp7881
I123
aI50
aa(lp7882
I125
aI50
aa(lp7883
I127
aI50
aa(lp7884
I130
aI50
aa(lp7885
I132
aI50
aa(lp7886
I138
aI50
aa(lp7887
I142
aF50.0
aa(lp7888
I150
aI50
aa(lp7889
I154
aI50
aa(lp7890
I157
aI50
aa(lp7891
I161
aI50
aasg13
I199
sg14
I50
sg17
g18
sbsg35
(iobjs
KeyFrame
p7892
(dp7893
g11
(lp7894
(lp7895
I1
a(lp7896
I0
aI0
aI0
aaa(lp7897
I10
a(lp7898
I0
aI0
aI0
aaa(lp7899
I18
a(lp7900
I0
aI0
aI0
aaa(lp7901
I20
a(lp7902
I0
aI0
aI0
aaa(lp7903
F25.600000000000001
a(lp7904
I0
aI0
aI0
aaa(lp7905
F31.100000000000001
a(lp7906
F0.0
aF0.0
aF0.0
aaa(lp7907
F36.100000000000001
a(lp7908
I0
aI0
aI0
aaa(lp7909
I39
a(lp7910
I0
aI0
aI0
aaa(lp7911
I43
a(lp7912
I0
aI0
aI0
aaa(lp7913
I50
a(lp7914
I0
aI0
aI0
aaa(lp7915
I54
a(lp7916
I0
aI0
aI0
aaa(lp7917
I61
a(lp7918
F0.0
aF0.0
aF0.0
aaa(lp7919
F67.699999999999989
a(lp7920
I0
aI0
aI0
aaa(lp7921
F71.099999999999994
a(lp7922
I0
aI0
aI0
aaa(lp7923
I74
a(lp7924
I0
aI0
aI0
aaa(lp7925
I81
a(lp7926
I0
aI0
aI0
aaa(lp7927
I90
a(lp7928
I0
aI0
aI0
aaa(lp7929
I93
a(lp7930
I0
aI0
aI0
aaa(lp7931
I100
a(lp7932
I0
aI0
aI0
aaa(lp7933
I102
a(lp7934
I0
aI0
aI0
aaa(lp7935
I104
a(lp7936
I0
aI0
aI0
aaa(lp7937
I106
a(lp7938
I0
aI0
aI0
aaa(lp7939
I108
a(lp7940
I0
aI0
aI0
aaa(lp7941
I111
a(lp7942
I0
aI0
aI0
aaa(lp7943
I113
a(lp7944
I0
aI0
aI0
aaa(lp7945
I115
a(lp7946
I0
aI0
aI0
aaa(lp7947
I117
a(lp7948
I0
aI0
aI0
aaa(lp7949
I119
a(lp7950
I0
aI0
aI0
aaa(lp7951
I121
a(lp7952
I0
aI0
aI0
aaa(lp7953
I123
a(lp7954
I0
aI0
aI0
aaa(lp7955
I125
a(lp7956
I0
aI0
aI0
aaa(lp7957
I127
a(lp7958
I0
aI0
aI0
aaa(lp7959
I130
a(lp7960
I0
aI0
aI0
aaa(lp7961
I132
a(lp7962
I0
aI0
aI0
aaa(lp7963
I138
a(lp7964
I0
aI0
aI0
aaa(lp7965
I142
a(lp7966
F0.0
aF0.0
aF0.0
aaa(lp7967
I150
a(lp7968
I0
aI0
aI0
aaa(lp7969
I154
a(lp7970
I0
aI0
aI0
aaa(lp7971
I157
a(lp7972
I0
aI0
aI0
aaa(lp7973
I161
a(lp7974
I0
aI0
aI0
aaasg13
I199
sg14
g7974
sg17
g18
sbsg8
(iobjs
KeyFrame
p7975
(dp7976
g11
(lp7977
(lp7978
I1
a(iobjs
Vector
p7979
(dp7980
g6
I0
sg7
I0
sbaa(lp7981
I10
a(iobjs
Vector
p7982
(dp7983
g6
I0
sg7
I0
sbaa(lp7984
I18
a(iobjs
Vector
p7985
(dp7986
g6
I0
sg7
I0
sbaa(lp7987
I20
a(iobjs
Vector
p7988
(dp7989
g6
I0
sg7
I0
sbaa(lp7990
F25.600000000000001
a(iobjs
Vector
p7991
(dp7992
g6
I0
sg7
I0
sbaa(lp7993
F31.100000000000001
a(lp7994
F0.0
aF0.0
aaa(lp7995
F36.100000000000001
a(iobjs
Vector
p7996
(dp7997
g6
I0
sg7
I0
sbaa(lp7998
I39
a(iobjs
Vector
p7999
(dp8000
g6
I0
sg7
I0
sbaa(lp8001
I43
a(iobjs
Vector
p8002
(dp8003
g6
I0
sg7
I0
sbaa(lp8004
I50
a(iobjs
Vector
p8005
(dp8006
g6
I0
sg7
I0
sbaa(lp8007
I54
a(iobjs
Vector
p8008
(dp8009
g6
I0
sg7
I0
sbaa(lp8010
I61
a(lp8011
F0.0
aF0.0
aaa(lp8012
F67.699999999999989
a(iobjs
Vector
p8013
(dp8014
g6
I0
sg7
I0
sbaa(lp8015
F71.099999999999994
a(iobjs
Vector
p8016
(dp8017
g6
I0
sg7
I0
sbaa(lp8018
I74
a(iobjs
Vector
p8019
(dp8020
g6
I0
sg7
I0
sbaa(lp8021
I81
a(iobjs
Vector
p8022
(dp8023
g6
I0
sg7
I0
sbaa(lp8024
I90
a(iobjs
Vector
p8025
(dp8026
g6
I0
sg7
I0
sbaa(lp8027
I93
a(iobjs
Vector
p8028
(dp8029
g6
I0
sg7
I0
sbaa(lp8030
I100
a(iobjs
Vector
p8031
(dp8032
g6
I0
sg7
I0
sbaa(lp8033
I102
a(iobjs
Vector
p8034
(dp8035
g6
I0
sg7
I0
sbaa(lp8036
I104
a(iobjs
Vector
p8037
(dp8038
g6
I0
sg7
I0
sbaa(lp8039
I106
a(iobjs
Vector
p8040
(dp8041
g6
I0
sg7
I0
sbaa(lp8042
I108
a(iobjs
Vector
p8043
(dp8044
g6
I0
sg7
I0
sbaa(lp8045
I111
a(iobjs
Vector
p8046
(dp8047
g6
I0
sg7
I0
sbaa(lp8048
I113
a(iobjs
Vector
p8049
(dp8050
g6
I0
sg7
I0
sbaa(lp8051
I115
a(iobjs
Vector
p8052
(dp8053
g6
I0
sg7
I0
sbaa(lp8054
I117
a(iobjs
Vector
p8055
(dp8056
g6
I0
sg7
I0
sbaa(lp8057
I119
a(iobjs
Vector
p8058
(dp8059
g6
I0
sg7
I0
sbaa(lp8060
I121
a(iobjs
Vector
p8061
(dp8062
g6
I0
sg7
I0
sbaa(lp8063
I123
a(iobjs
Vector
p8064
(dp8065
g6
I0
sg7
I0
sbaa(lp8066
I125
a(iobjs
Vector
p8067
(dp8068
g6
I0
sg7
I0
sbaa(lp8069
I127
a(iobjs
Vector
p8070
(dp8071
g6
I0
sg7
I0
sbaa(lp8072
I130
a(iobjs
Vector
p8073
(dp8074
g6
I0
sg7
I0
sbaa(lp8075
I132
a(iobjs
Vector
p8076
(dp8077
g6
I0
sg7
I0
sbaa(lp8078
I138
a(iobjs
Vector
p8079
(dp8080
g6
I0
sg7
I0
sbaa(lp8081
I142
a(lp8082
F0.0
aF0.0
aaa(lp8083
I150
a(iobjs
Vector
p8084
(dp8085
g6
I0
sg7
I0
sbaa(lp8086
I154
a(iobjs
Vector
p8087
(dp8088
g6
I0
sg7
I0
sbaa(lp8089
I157
a(iobjs
Vector
p8090
(dp8091
g6
I0
sg7
I0
sbaa(lp8092
I161
a(iobjs
Vector
p8093
(dp8094
g6
I0
sg7
I0
sbaasg13
I199
sg14
g8093
sg17
g18
sbsg45
(iobjs
KeyFrame
p8095
(dp8096
g11
(lp8097
(lp8098
I1
aI7
aa(lp8099
I10
aI7
aa(lp8100
I18
aI7
aa(lp8101
I20
aI7
aa(lp8102
F25.600000000000001
aI7
aa(lp8103
F31.100000000000001
aF7.0
aa(lp8104
F36.100000000000001
aI7
aa(lp8105
I39
aI7
aa(lp8106
I43
aI7
aa(lp8107
I50
aI7
aa(lp8108
I54
aI7
aa(lp8109
I61
aF7.0
aa(lp8110
F67.699999999999989
aI7
aa(lp8111
F71.099999999999994
aI7
aa(lp8112
I74
aI7
aa(lp8113
I81
aI7
aa(lp8114
I90
aI7
aa(lp8115
I93
aI7
aa(lp8116
I100
aI7
aa(lp8117
I102
aI7
aa(lp8118
I104
aI7
aa(lp8119
I106
aI7
aa(lp8120
I108
aI7
aa(lp8121
I111
aI7
aa(lp8122
I113
aI7
aa(lp8123
I115
aI7
aa(lp8124
I117
aI7
aa(lp8125
I119
aI7
aa(lp8126
I121
aI7
aa(lp8127
I123
aI7
aa(lp8128
I125
aI7
aa(lp8129
I127
aI7
aa(lp8130
I130
aI7
aa(lp8131
I132
aI7
aa(lp8132
I138
aI7
aa(lp8133
I142
aF7.0
aa(lp8134
I150
aI7
aa(lp8135
I154
aI7
aa(lp8136
I157
aI7
aa(lp8137
I161
aI7
aasg13
I199
sg14
I7
sg17
g18
sbsg49
(iobjs
Texture
p8138
(dp8139
g13
I199
sg52
(dp8140
g63
(iobjs
KeyFrame
p8141
(dp8142
g11
(lp8143
(lp8144
I1
ag67
aa(lp8145
I10
ag67
aa(lp8146
I18
ag67
aa(lp8147
I20
ag67
aa(lp8148
I28
ag67
aa(lp8149
I35
ag67
aa(lp8150
I39
ag67
aa(lp8151
I40
ag67
aa(lp8152
I43
ag67
aa(lp8153
I50
ag67
aa(lp8154
I54
ag67
aa(lp8155
I61
ag67
aa(lp8156
I65
ag67
aa(lp8157
I74
ag67
aa(lp8158
I75
ag67
aa(lp8159
I81
ag67
aa(lp8160
I90
ag67
aa(lp8161
I93
ag67
aa(lp8162
I100
ag67
aa(lp8163
I102
ag67
aa(lp8164
I104
ag67
aa(lp8165
I106
ag67
aa(lp8166
I108
ag67
aa(lp8167
I111
ag67
aa(lp8168
I113
ag67
aa(lp8169
I115
ag67
aa(lp8170
I117
ag67
aa(lp8171
I119
ag67
aa(lp8172
I121
ag67
aa(lp8173
I123
ag67
aa(lp8174
I125
ag67
aa(lp8175
I127
ag67
aa(lp8176
I130
ag67
aa(lp8177
I132
ag67
aa(lp8178
I138
ag67
aa(lp8179
I142
ag67
aa(lp8180
I150
ag67
aa(lp8181
I154
ag67
aa(lp8182
I157
ag67
aa(lp8183
I161
ag67
aasg13
I199
sg14
g67
sg17
g30
sbsg72
(iobjs
KeyFrame
p8184
(dp8185
g11
(lp8186
(lp8187
I1
aI01
aa(lp8188
I10
aI01
aa(lp8189
I18
aI01
aa(lp8190
I20
aI01
aa(lp8191
I28
aI01
aa(lp8192
I35
aI01
aa(lp8193
I39
aI01
aa(lp8194
I40
aI01
aa(lp8195
I43
aI01
aa(lp8196
I50
aI01
aa(lp8197
I54
aI01
aa(lp8198
I61
aI01
aa(lp8199
I65
aI01
aa(lp8200
I74
aI01
aa(lp8201
I75
aI01
aa(lp8202
I81
aI01
aa(lp8203
I90
aI01
aa(lp8204
I93
aI01
aa(lp8205
I100
aI01
aa(lp8206
I102
aI01
aa(lp8207
I104
aI01
aa(lp8208
I106
aI01
aa(lp8209
I108
aI01
aa(lp8210
I111
aI01
aa(lp8211
I113
aI01
aa(lp8212
I115
aI01
aa(lp8213
I117
aI01
aa(lp8214
I119
aI01
aa(lp8215
I121
aI01
aa(lp8216
I123
aI01
aa(lp8217
I125
aI01
aa(lp8218
I127
aI01
aa(lp8219
I130
aI01
aa(lp8220
I132
aI01
aa(lp8221
I138
aI01
aa(lp8222
I142
aI01
aa(lp8223
I150
aI01
aa(lp8224
I154
aI01
aa(lp8225
I157
aI01
aa(lp8226
I161
aI01
aasg13
I199
sg14
I01
sg17
g30
sbsg76
(iobjs
KeyFrame
p8227
(dp8228
g11
(lp8229
(lp8230
I1
aI01
aa(lp8231
I10
aI01
aa(lp8232
I18
aI01
aa(lp8233
I20
aI01
aa(lp8234
I28
aI01
aa(lp8235
I35
aI01
aa(lp8236
I39
aI01
aa(lp8237
I40
aI01
aa(lp8238
I43
aI01
aa(lp8239
I50
aI01
aa(lp8240
I54
aI01
aa(lp8241
I61
aI01
aa(lp8242
I65
aI01
aa(lp8243
I74
aI01
aa(lp8244
I75
aI01
aa(lp8245
I81
aI01
aa(lp8246
I90
aI01
aa(lp8247
I93
aI01
aa(lp8248
I100
aI01
aa(lp8249
I102
aI01
aa(lp8250
I104
aI01
aa(lp8251
I106
aI01
aa(lp8252
I108
aI01
aa(lp8253
I111
aI01
aa(lp8254
I113
aI01
aa(lp8255
I115
aI01
aa(lp8256
I117
aI01
aa(lp8257
I119
aI01
aa(lp8258
I121
aI01
aa(lp8259
I123
aI01
aa(lp8260
I125
aI01
aa(lp8261
I127
aI01
aa(lp8262
I130
aI01
aa(lp8263
I132
aI01
aa(lp8264
I138
aI01
aa(lp8265
I142
aI01
aa(lp8266
I150
aI01
aa(lp8267
I154
aI01
aa(lp8268
I157
aI01
aa(lp8269
I161
aI01
aasg13
I199
sg14
I01
sg17
g30
sbsg49
(iobjs
KeyFrame
p8270
(dp8271
g11
(lp8272
(lp8273
I1
ag57
aa(lp8274
I10
ag57
aa(lp8275
I18
ag57
aa(lp8276
I20
ag57
aa(lp8277
I28
ag57
aa(lp8278
I35
ag57
aa(lp8279
I39
ag57
aa(lp8280
I40
ag57
aa(lp8281
I43
ag57
aa(lp8282
I50
ag57
aa(lp8283
I54
ag57
aa(lp8284
I61
ag57
aa(lp8285
I65
ag57
aa(lp8286
I74
ag57
aa(lp8287
I75
ag57
aa(lp8288
I81
ag57
aa(lp8289
I90
ag57
aa(lp8290
I93
ag57
aa(lp8291
I100
ag57
aa(lp8292
I102
ag57
aa(lp8293
I104
ag57
aa(lp8294
I106
ag57
aa(lp8295
I108
ag57
aa(lp8296
I111
ag57
aa(lp8297
I113
ag57
aa(lp8298
I115
ag57
aa(lp8299
I117
ag57
aa(lp8300
I119
ag57
aa(lp8301
I121
ag57
aa(lp8302
I123
ag57
aa(lp8303
I125
ag57
aa(lp8304
I127
ag57
aa(lp8305
I130
ag57
aa(lp8306
I132
ag57
aa(lp8307
I138
ag57
aa(lp8308
I142
ag57
aa(lp8309
I150
ag57
aa(lp8310
I154
ag57
aa(lp8311
I157
ag57
aa(lp8312
I161
ag57
aasg13
I199
sg14
g57
sg17
g30
sbsg58
(iobjs
KeyFrame
p8313
(dp8314
g11
(lp8315
(lp8316
I1
ag62
aa(lp8317
I10
ag62
aa(lp8318
I18
ag62
aa(lp8319
I20
ag62
aa(lp8320
I28
ag62
aa(lp8321
I35
ag62
aa(lp8322
I39
ag62
aa(lp8323
I40
ag62
aa(lp8324
I43
ag62
aa(lp8325
I50
ag62
aa(lp8326
I54
ag62
aa(lp8327
I61
ag62
aa(lp8328
I65
ag62
aa(lp8329
I74
ag62
aa(lp8330
I75
ag62
aa(lp8331
I81
ag62
aa(lp8332
I90
ag62
aa(lp8333
I93
ag62
aa(lp8334
I100
ag62
aa(lp8335
I102
ag62
aa(lp8336
I104
ag62
aa(lp8337
I106
ag62
aa(lp8338
I108
ag62
aa(lp8339
I111
ag62
aa(lp8340
I113
ag62
aa(lp8341
I115
ag62
aa(lp8342
I117
ag62
aa(lp8343
I119
ag62
aa(lp8344
I121
ag62
aa(lp8345
I123
ag62
aa(lp8346
I125
ag62
aa(lp8347
I127
ag62
aa(lp8348
I130
ag62
aa(lp8349
I132
ag62
aa(lp8350
I138
ag62
aa(lp8351
I142
ag62
aa(lp8352
I150
ag62
aa(lp8353
I154
ag62
aa(lp8354
I157
ag62
aa(lp8355
I161
ag62
aasg13
I199
sg14
g62
sg17
g30
sbsg68
(iobjs
KeyFrame
p8356
(dp8357
g11
(lp8358
(lp8359
I1
aI00
aa(lp8360
I10
aI00
aa(lp8361
I18
aI00
aa(lp8362
I20
aI00
aa(lp8363
I28
aI00
aa(lp8364
I35
aI00
aa(lp8365
I39
aI00
aa(lp8366
I40
aI00
aa(lp8367
I43
aI00
aa(lp8368
I50
aI00
aa(lp8369
I54
aI00
aa(lp8370
I61
aI00
aa(lp8371
I65
aI00
aa(lp8372
I74
aI00
aa(lp8373
I75
aI00
aa(lp8374
I81
aI00
aa(lp8375
I90
aI00
aa(lp8376
I93
aI00
aa(lp8377
I100
aI00
aa(lp8378
I102
aI00
aa(lp8379
I104
aI00
aa(lp8380
I106
aI00
aa(lp8381
I108
aI00
aa(lp8382
I111
aI00
aa(lp8383
I113
aI00
aa(lp8384
I115
aI00
aa(lp8385
I117
aI00
aa(lp8386
I119
aI00
aa(lp8387
I121
aI00
aa(lp8388
I123
aI00
aa(lp8389
I125
aI00
aa(lp8390
I127
aI00
aa(lp8391
I130
aI00
aa(lp8392
I132
aI00
aa(lp8393
I138
aI00
aa(lp8394
I142
aI00
aa(lp8395
I150
aI00
aa(lp8396
I154
aI00
aa(lp8397
I157
aI00
aa(lp8398
I161
aI00
aasg13
I199
sg14
I00
sg17
g30
sbssg80
(dp8399
g63
g82
sg68
g83
sg72
g84
sg58
g85
sg76
g86
ssbsg87
(iobjs
KeyFrame
p8400
(dp8401
g11
(lp8402
(lp8403
I1
aI0
aa(lp8404
I10
aI0
aa(lp8405
I18
aF59.519135756240274
aa(lp8406
I20
aF87.146544548736699
aa(lp8407
F25.600000000000001
aF-1.2236262388212822
aa(lp8408
F31.100000000000001
aF15.26285903922934
aa(lp8409
F36.100000000000001
aF135.7180348022668
aa(lp8410
I39
aF148.36807491778791
aa(lp8411
I43
aF129.75540215506641
aa(lp8412
I50
aF-64.517886222637799
aa(lp8413
I54
aF-17.585492016173475
aa(lp8414
I61
aF-10.370224267969611
aa(lp8415
F67.699999999999989
aF-3.4641822804030653
aa(lp8416
F71.099999999999994
aF-3.4641822804030653
aa(lp8417
I74
aF46.360784376573235
aa(lp8418
I81
aF46.360784376573235
aa(lp8419
I90
aF46.360784376573235
aa(lp8420
I93
aF59.595376678143907
aa(lp8421
I100
aF76.255815240814741
aa(lp8422
I102
aF70.925609178995927
aa(lp8423
I104
aF47.184113154770387
aa(lp8424
I106
aF-2.6219436868724699
aa(lp8425
I108
aF30.926296261926808
aa(lp8426
I111
aF10.106249463326762
aa(lp8427
I113
aF30.140548180069089
aa(lp8428
I115
aF19.093118435239063
aa(lp8429
I117
aF19.093118435239063
aa(lp8430
I119
aF-18.783088308706652
aa(lp8431
I121
aF-36.551058390992893
aa(lp8432
I123
aF-23.578392126456407
aa(lp8433
I125
aF-20.235478330863344
aa(lp8434
I127
aF0.44105133288863385
aa(lp8435
I130
aF0.44105133288863385
aa(lp8436
I132
aF0.44105133288863385
aa(lp8437
I138
aF2.4798557793333202
aa(lp8438
I142
aF6.1358353593137362
aa(lp8439
I150
aF13.447794519274566
aa(lp8440
I154
aF26.845828560674079
aa(lp8441
I157
aF13.830817904045205
aa(lp8442
I161
aF0.0
aasg13
I199
sg14
F0.0
sg17
g18
sbsg91
(iobjs
KeyFrame
p8443
(dp8444
g11
(lp8445
(lp8446
I1
aI00
aa(lp8447
I10
aI00
aa(lp8448
I18
aI00
aa(lp8449
I20
aI00
aa(lp8450
F25.600000000000001
aI00
aa(lp8451
F31.100000000000001
aI00
aa(lp8452
F36.100000000000001
aI00
aa(lp8453
I39
aI00
aa(lp8454
I43
aI00
aa(lp8455
I50
aI00
aa(lp8456
I54
aI00
aa(lp8457
I61
aI00
aa(lp8458
F67.699999999999989
aI00
aa(lp8459
F71.099999999999994
aI00
aa(lp8460
I74
aI00
aa(lp8461
I81
aI00
aa(lp8462
I90
aI00
aa(lp8463
I93
aI00
aa(lp8464
I100
aI00
aa(lp8465
I102
aI00
aa(lp8466
I104
aI00
aa(lp8467
I106
aI00
aa(lp8468
I108
aI00
aa(lp8469
I111
aI00
aa(lp8470
I113
aI00
aa(lp8471
I115
aI00
aa(lp8472
I117
aI00
aa(lp8473
I119
aI00
aa(lp8474
I121
aI00
aa(lp8475
I123
aI00
aa(lp8476
I125
aI00
aa(lp8477
I127
aI00
aa(lp8478
I130
aI00
aa(lp8479
I132
aI00
aa(lp8480
I138
aI00
aa(lp8481
I142
aI00
aa(lp8482
I150
aI00
aa(lp8483
I154
aI00
aa(lp8484
I157
aI00
aa(lp8485
I161
aI00
aasg13
I199
sg14
I00
sg17
g30
sbsg95
(iobjs
KeyFrame
p8486
(dp8487
g11
(lp8488
(lp8489
I1
aI00
aa(lp8490
I10
aI00
aa(lp8491
I18
aI00
aa(lp8492
I20
aI00
aa(lp8493
F25.600000000000001
aI00
aa(lp8494
F31.100000000000001
aI00
aa(lp8495
F36.100000000000001
aI00
aa(lp8496
I39
aI00
aa(lp8497
I43
aI00
aa(lp8498
I50
aI00
aa(lp8499
I54
aI00
aa(lp8500
I61
aI00
aa(lp8501
F67.699999999999989
aI00
aa(lp8502
F71.099999999999994
aI00
aa(lp8503
I74
aI00
aa(lp8504
I81
aI00
aa(lp8505
I90
aI00
aa(lp8506
I93
aI00
aa(lp8507
I100
aI00
aa(lp8508
I102
aI00
aa(lp8509
I104
aI00
aa(lp8510
I106
aI00
aa(lp8511
I108
aI00
aa(lp8512
I111
aI00
aa(lp8513
I113
aI00
aa(lp8514
I115
aI00
aa(lp8515
I117
aI00
aa(lp8516
I119
aI00
aa(lp8517
I121
aI00
aa(lp8518
I123
aI00
aa(lp8519
I125
aI00
aa(lp8520
I127
aI00
aa(lp8521
I130
aI00
aa(lp8522
I132
aI00
aa(lp8523
I138
aI00
aa(lp8524
I142
aI00
aa(lp8525
I150
aI00
aa(lp8526
I154
aI00
aa(lp8527
I157
aI00
aa(lp8528
I161
aI00
aasg13
I199
sg14
I00
sg17
g30
sbsg99
(lp8529
sasasassS'framelimit'
p8530
(lp8531
I1
aI200
as.